(lp0
(iflightmod
Flight
p1
(dp2
S'origin'
p3
S'London'
p4
sS'arrival'
p5
I1383150600
sS'flight'
p6
S'U25267'
p7
sS'departure'
p8
I1383143100
sS'aircraft'
p9
S'A319'
p10
sS'airline'
p11
S'EasyJet'
p12
sba(iflightmod
Flight
p13
(dp14
g3
S'Tirana'
p15
sg5
I1383150600
sg6
S'LZ673'
p16
sg8
I1383145200
sg9
S'A319'
p17
sg11
S'Belle Air'
p18
sba(iflightmod
Flight
p19
(dp20
g3
S'Paris'
p21
sg5
I1383150900
sg6
S'AF1226'
p22
sg8
I1383144900
sg9
S'A320'
p23
sg11
S'Air France'
p24
sba(iflightmod
Flight
p25
(dp26
g3
S'Istanbul'
p27
sg5
I1383152400
sg6
S'TK1869'
p28
sg8
I1383143100
sg9
S'A320'
p29
sg11
S'Turkish Airlines'
p30
sba(iflightmod
Flight
p31
(dp32
g3
S'Lamezia Terme'
p33
sg5
I1383152700
sg6
S'AP729'
p34
sg8
I1383147300
sg9
S'A320'
p35
sg11
S'Air One'
p36
sba(iflightmod
Flight
p37
(dp38
g3
S'Frankfurt'
p39
sg5
I1383153000
sg6
S'LH330'
p40
sg8
I1383148200
sg9
S'A321'
p41
sg11
S'Lufthansa'
p42
sba(iflightmod
Flight
p43
(dp44
g3
S'Vienna'
p45
sg5
I1383154200
sg6
S'OS529'
p46
sg8
I1383150000
sg9
S'DH4'
p47
sg11
S'Austrian Airlines'
p48
sba(iflightmod
Flight
p49
(dp50
g3
S'Manchester'
p51
sg5
I1383155100
sg6
S'ZB1372'
p52
sg8
I1383146700
sg9
S'A321'
p53
sg11
S'Monarch Airlines'
p54
sba(iflightmod
Flight
p55
(dp56
g3
S'London'
p57
sg5
I1383155400
sg6
S'BA2586'
p58
sg8
I1383148500
sg9
S'B734'
p59
sg11
S'British Airways'
p60
sba(iflightmod
Flight
p61
(dp62
g3
S'Naples'
p63
sg5
I1383155400
sg6
S'U2997'
p64
sg8
I1383150900
sg9
S'A319'
p65
sg11
S'EasyJet'
p66
sba(iflightmod
Flight
p67
(dp68
g3
S'Palermo'
p69
sg5
I1383155400
sg6
S'AP735'
p70
sg8
I1383150000
sg9
S'A320'
p71
sg11
S'Air One'
p72
sba(iflightmod
Flight
p73
(dp74
g3
S'Zurich'
p75
sg5
I1383155400
sg6
S'LX1664'
p76
sg8
I1383151200
sg9
S'AR1'
p77
sg11
S'Swiss'
p78
sba(iflightmod
Flight
p79
(dp80
g3
S'Rome'
p81
sg5
I1383156300
sg6
S'AZ1467'
p82
sg8
I1383152400
sg9
S'E75'
p83
sg11
S'Alitalia'
p84
sba(iflightmod
Flight
p85
(dp86
g3
S'Madrid'
p87
sg5
I1383156900
sg6
S'IB3246'
p88
sg8
I1383148200
sg9
S'A321'
p89
sg11
S'Iberia'
p90
sba(iflightmod
Flight
p91
(dp92
g3
S'Paris'
p93
sg5
I1383157200
sg6
S'U24295'
p94
sg8
I1383151200
sg9
S'A320'
p95
sg11
S'EasyJet'
p96
sba(iflightmod
Flight
p97
(dp98
g3
S'Lisbon'
p99
sg5
I1383157500
sg6
S'U27681'
p100
sg8
I1383147000
sg9
S'A319'
p101
sg11
S'EasyJet'
p102
sba(iflightmod
Flight
p103
(dp104
g3
S'Barcelona'
p105
sg5
I1383158700
sg6
S'VY6402'
p106
sg8
I1383152400
sg9
S'A320'
p107
sg11
S'Vueling'
p108
sba(iflightmod
Flight
p109
(dp110
g3
S'Rome'
p111
sg5
I1383159900
sg6
S'AZ1481'
p112
sg8
I1383156000
sg9
S'A319'
p113
sg11
S'Alitalia'
p114
sba(iflightmod
Flight
p115
(dp116
g3
S'Catania'
p117
sg5
I1383160500
sg6
S'AP872'
p118
sg8
I1383154500
sg9
S'A320'
p119
sg11
S'Air One'
p120
sba(iflightmod
Flight
p121
(dp122
g3
S'Paris'
p123
sg5
I1383161400
sg6
S'U23795'
p124
sg8
I1383155400
sg9
S'A319'
p125
sg11
S'EasyJet'
p126
sba(iflightmod
Flight
p127
(dp128
g3
S'Rome'
p129
sg5
I1383162600
sg6
S'U2985'
p130
sg8
I1383158700
sg9
S'A319'
p131
sg11
S'EasyJet'
p132
sba(iflightmod
Flight
p133
(dp134
g3
S'Rome'
p135
sg5
I1383164700
sg6
S'AZ1483'
p136
sg8
I1383160800
sg9
S'A319'
p137
sg11
S'Alitalia'
p138
sba(iflightmod
Flight
p139
(dp140
g3
S'Vienna'
p141
sg5
I1383165900
sg6
S'OS527'
p142
sg8
I1383161700
sg9
S'DH4'
p143
sg11
S'Austrian Airlines'
p144
sba(iflightmod
Flight
p145
(dp146
g3
S'Moscow'
p147
sg5
I1383166800
sg6
S'SU2422'
p148
sg8
I1383154500
sg9
S'A320'
p149
sg11
S'Aeroflot'
p150
sba(iflightmod
Flight
p151
(dp152
g3
S'Paris'
p153
sg5
I1383167400
sg6
S'AF1326'
p154
sg8
I1383161400
sg9
S'A318'
p155
sg11
S'Air France'
p156
sba(iflightmod
Flight
p157
(dp158
g3
S'Vienna'
p159
sg5
I1383154200
sg6
S'OS529'
p160
sg8
I1383150000
sg9
S'DH8D'
p161
sg11
S'Austrian Airlines'
p162
sba(iflightmod
Flight
p163
(dp164
g3
S'Zurich'
p165
sg5
I1383155400
sg6
S'LX1664'
p166
sg8
I1383151200
sg9
S'RJ1H'
p167
sg11
S'Swiss'
p168
sba(iflightmod
Flight
p169
(dp170
g3
S'Amsterdam'
p171
sg5
I1383168000
sg6
S'KL1659'
p172
sg8
I1383161700
sg9
S'B738'
p173
sg11
S'KLM'
p174
sba(iflightmod
Flight
p175
(dp176
g3
S'Rome'
p177
sg5
I1383168300
sg6
S'AZ1473'
p178
sg8
I1383164400
sg9
S'32S'
p179
sg11
S'Alitalia'
p180
sba(iflightmod
Flight
p181
(dp182
g3
S'Munich'
p183
sg5
I1383168300
sg6
S'EN8206'
p184
sg8
I1383164700
sg9
S'E95'
p185
sg11
S'Air Dolomiti'
p186
sba(iflightmod
Flight
p187
(dp188
g3
S'Rome'
p189
sg5
I1383156300
sg6
S'AZ1467'
p190
sg8
I1383152400
sg9
S'E190'
p191
sg11
S'Alitalia'
p192
sba(iflightmod
Flight
p193
(dp194
g3
S'Naples'
p195
sg5
I1383228600
sg6
S'U2995'
p196
sg8
I1383224100
sg9
S'A319'
p197
sg11
S'EasyJet'
p198
sba(iflightmod
Flight
p199
(dp200
g3
S'Nantes'
p201
sg5
I1383228600
sg6
S'TO3972'
p202
sg8
I1383221700
sg9
S'B738'
p203
sg11
S'Transavia France'
p204
sba(iflightmod
Flight
p205
(dp206
g3
S'London'
p207
sg5
I1383229500
sg6
S'BA2584'
p208
sg8
I1383222300
sg9
S'B734'
p209
sg11
S'British Airways'
p210
sba(iflightmod
Flight
p211
(dp212
g3
S'Rome'
p213
sg5
I1383230400
sg6
S'AZ1475'
p214
sg8
I1383226500
sg9
S'A319'
p215
sg11
S'Alitalia'
p216
sba(iflightmod
Flight
p217
(dp218
g3
S'Bordeaux'
p219
sg5
I1383231000
sg6
S'V71347'
p220
sg8
I1383224400
sg9
S'B712'
p221
sg11
S'Volotea'
p222
sba(iflightmod
Flight
p223
(dp224
g3
S'Lyon'
p225
sg5
I1383232500
sg6
S'U24465'
p226
sg8
I1383228000
sg9
S'A319'
p227
sg11
S'EasyJet'
p228
sba(iflightmod
Flight
p229
(dp230
g3
S'Munich'
p231
sg5
I1383233700
sg6
S'EN8204'
p232
sg8
I1383230100
sg9
S'E95'
p233
sg11
S'Air Dolomiti'
p234
sba(iflightmod
Flight
p235
(dp236
g3
S'Lyon'
p237
sg5
I1383234600
sg6
S'A54526'
p238
sg8
I1383229800
sg9
S'E145'
p239
sg11
S'HOP!'
p240
sba(iflightmod
Flight
p241
(dp242
g3
S'Amsterdam'
p243
sg5
I1383234900
sg6
S'KL1655'
p244
sg8
I1383228600
sg9
S'B739'
p245
sg11
S'KLM'
p246
sba(iflightmod
Flight
p247
(dp248
g3
S'Barcelona'
p249
sg5
I1383235200
sg6
S'VY6404'
p250
sg8
I1383228900
sg9
S'A320'
p251
sg11
S'Vueling'
p252
sba(iflightmod
Flight
p253
(dp254
g3
S'Southend'
p255
sg5
I1383235200
sg6
S'U27397'
p256
sg8
I1383228000
sg9
S'A319'
p257
sg11
S'EasyJet'
p258
sba(iflightmod
Flight
p259
(dp260
g3
S'London'
p261
sg5
I1383237000
sg6
S'U25267'
p262
sg8
I1383229500
sg9
S'A319'
p263
sg11
S'EasyJet'
p264
sba(iflightmod
Flight
p265
(dp266
g3
S'Paris'
p267
sg5
I1383237300
sg6
S'AF1226'
p268
sg8
I1383231300
sg9
S'A319'
p269
sg11
S'Air France'
p270
sba(iflightmod
Flight
p271
(dp272
g3
S'Istanbul'
p273
sg5
I1383238800
sg6
S'TK1869'
p274
sg8
I1383229500
sg9
S'B738'
p275
sg11
S'Turkish Airlines'
p276
sba(iflightmod
Flight
p277
(dp278
g3
S'Frankfurt'
p279
sg5
I1383239400
sg6
S'LH330'
p280
sg8
I1383234600
sg9
S'32A'
p281
sg11
S'Lufthansa'
p282
sba(iflightmod
Flight
p283
(dp284
g3
S'Vienna'
p285
sg5
I1383240600
sg6
S'OS529'
p286
sg8
I1383236400
sg9
S'F100'
p287
sg11
S'Austrian Airlines'
p288
sba(iflightmod
Flight
p289
(dp290
g3
S'London'
p291
sg5
I1383241800
sg6
S'BA2586'
p292
sg8
I1383234900
sg9
S'B734'
p293
sg11
S'British Airways'
p294
sba(iflightmod
Flight
p295
(dp296
g3
S'Naples'
p297
sg5
I1383241800
sg6
S'U2997'
p298
sg8
I1383237300
sg9
S'A319'
p299
sg11
S'EasyJet'
p300
sba(iflightmod
Flight
p301
(dp302
g3
S'Zurich'
p303
sg5
I1383241800
sg6
S'LX1664'
p304
sg8
I1383237600
sg9
S'AR1'
p305
sg11
S'Swiss'
p306
sba(iflightmod
Flight
p307
(dp308
g3
S'Newcastle'
p309
sg5
I1383242400
sg6
S'LS559'
p310
sg8
I1383232500
sg9
S'B733'
p311
sg11
S'Jet2'
p312
sba(iflightmod
Flight
p313
(dp314
g3
S'Rome'
p315
sg5
I1383242700
sg6
S'AZ1467'
p316
sg8
I1383238800
sg9
S'E75'
p317
sg11
S'Alitalia'
p318
sba(iflightmod
Flight
p319
(dp320
g3
S'Madrid'
p321
sg5
I1383243300
sg6
S'IB3246'
p322
sg8
I1383234600
sg9
S'A321'
p323
sg11
S'Iberia'
p324
sba(iflightmod
Flight
p325
(dp326
g3
S'Manchester'
p327
sg5
I1383243300
sg6
S'U21863'
p328
sg8
I1383234300
sg9
S'A319'
p329
sg11
S'EasyJet'
p330
sba(iflightmod
Flight
p331
(dp332
g3
S'Paris'
p333
sg5
I1383243600
sg6
S'U24295'
p334
sg8
I1383237600
sg9
S'A320'
p335
sg11
S'EasyJet'
p336
sba(iflightmod
Flight
p337
(dp338
g3
S'Olbia'
p339
sg5
I1383244500
sg6
S'V71215'
p340
sg8
I1383240000
sg9
S'B717'
p341
sg11
S'Volotea'
p342
sba(iflightmod
Flight
p343
(dp344
g3
S'Palermo'
p345
sg5
I1383244500
sg6
S'AP735'
p346
sg8
I1383239100
sg9
S'A320'
p347
sg11
S'Air One'
p348
sba(iflightmod
Flight
p349
(dp350
g3
S'Catania'
p351
sg5
I1383244800
sg6
S'AP872'
p352
sg8
I1383238800
sg9
S'A320'
p353
sg11
S'Air One'
p354
sba(iflightmod
Flight
p355
(dp356
g3
S'Munich'
p357
sg5
I1383233700
sg6
S'EN8204'
p358
sg8
I1383230100
sg9
S'E190'
p359
sg11
S'Air Dolomiti'
p360
sba(iflightmod
Flight
p361
(dp362
g3
S'Barcelona'
p363
sg5
I1383245100
sg6
S'VY6402'
p364
sg8
I1383238800
sg9
S'A320'
p365
sg11
S'Vueling'
p366
sba(iflightmod
Flight
p367
(dp368
g3
S'London'
p369
sg5
I1383245400
sg6
S'ZB7258'
p370
sg8
I1383237900
sg9
S'A321'
p371
sg11
S'Monarch Airlines'
p372
sba(iflightmod
Flight
p373
(dp374
g3
S'Nice'
p375
sg5
I1383246000
sg6
S'U21651'
p376
sg8
I1383241200
sg9
S'A319'
p377
sg11
S'EasyJet'
p378
sba(iflightmod
Flight
p379
(dp380
g3
S'Rome'
p381
sg5
I1383246300
sg6
S'AZ1481'
p382
sg8
I1383242400
sg9
S'A320'
p383
sg11
S'Alitalia'
p384
sba(iflightmod
Flight
p385
(dp386
g3
S'Frankfurt'
p387
sg5
I1383239400
sg6
S'LH330'
p388
sg8
I1383234600
sg9
S'A321'
p389
sg11
S'Lufthansa'
p390
sba(iflightmod
Flight
p391
(dp392
g3
S'Paris'
p393
sg5
I1383247800
sg6
S'U23795'
p394
sg8
I1383241800
sg9
S'A319'
p395
sg11
S'EasyJet'
p396
sba(iflightmod
Flight
p397
(dp398
g3
S'Mulhouse'
p399
sg5
I1383248100
sg6
S'U21163'
p400
sg8
I1383244200
sg9
S'A319'
p401
sg11
S'EasyJet'
p402
sba(iflightmod
Flight
p403
(dp404
g3
S'Rome'
p405
sg5
I1383249000
sg6
S'U2985'
p406
sg8
I1383245100
sg9
S'A319'
p407
sg11
S'EasyJet'
p408
sba(iflightmod
Flight
p409
(dp410
g3
S'London'
p411
sg5
I1383249300
sg6
S'U25269'
p412
sg8
I1383241800
sg9
S'A319'
p413
sg11
S'EasyJet'
p414
sba(iflightmod
Flight
p415
(dp416
g3
S'Rome'
p417
sg5
I1383251100
sg6
S'AZ1483'
p418
sg8
I1383247200
sg9
S'A319'
p419
sg11
S'Alitalia'
p420
sba(iflightmod
Flight
p421
(dp422
g3
S'Vienna'
p423
sg5
I1383252300
sg6
S'OS527'
p424
sg8
I1383248100
sg9
S'DH4'
p425
sg11
S'Austrian Airlines'
p426
sba(iflightmod
Flight
p427
(dp428
g3
S'Rome'
p429
sg5
I1383242700
sg6
S'AZ1467'
p430
sg8
I1383238800
sg9
S'E170'
p431
sg11
S'Alitalia'
p432
sba(iflightmod
Flight
p433
(dp434
g3
S'Moscow'
p435
sg5
I1383253200
sg6
S'SU2422'
p436
sg8
I1383240900
sg9
S'A320'
p437
sg11
S'Aeroflot'
p438
sba(iflightmod
Flight
p439
(dp440
g3
S'Zurich'
p441
sg5
I1383241800
sg6
S'LX1664'
p442
sg8
I1383237600
sg9
S'RJ1H'
p443
sg11
S'Swiss'
p444
sba(iflightmod
Flight
p445
(dp446
g3
S'Paris'
p447
sg5
I1383253800
sg6
S'AF1326'
p448
sg8
I1383247800
sg9
S'A318'
p449
sg11
S'Air France'
p450
sba(iflightmod
Flight
p451
(dp452
g3
S'Amsterdam'
p453
sg5
I1383254400
sg6
S'KL1659'
p454
sg8
I1383248100
sg9
S'B738'
p455
sg11
S'KLM'
p456
sba(iflightmod
Flight
p457
(dp458
g3
S'Bari'
p459
sg5
I1383254400
sg6
S'V71235'
p460
sg8
I1383249600
sg9
S'B717'
p461
sg11
S'Volotea'
p462
sba(iflightmod
Flight
p463
(dp464
g3
S'Olbia'
p465
sg5
I1383244500
sg6
S'V71215'
p466
sg8
I1383240000
sg9
S'B712'
p467
sg11
S'Volotea'
p468
sba(iflightmod
Flight
p469
(dp470
g3
S'Rome'
p471
sg5
I1383254700
sg6
S'AZ1473'
p472
sg8
I1383250800
sg9
S'32S'
p473
sg11
S'Alitalia'
p474
sba(iflightmod
Flight
p475
(dp476
g3
S'Munich'
p477
sg5
I1383254700
sg6
S'EN8206'
p478
sg8
I1383251100
sg9
S'E95'
p479
sg11
S'Air Dolomiti'
p480
sba(iflightmod
Flight
p481
(dp482
g3
S'Brussels'
p483
sg5
I1383255300
sg6
S'SN3207'
p484
sg8
I1383249000
sg9
S'AR1'
p485
sg11
S'Brussels Airlines'
p486
sba(iflightmod
Flight
p487
(dp488
g3
S'Frankfurt'
p489
sg5
I1383257700
sg6
S'LH332'
p490
sg8
I1383252900
sg9
S'A320'
p491
sg11
S'Lufthansa'
p492
sba(iflightmod
Flight
p493
(dp494
g3
S'Palermo'
p495
sg5
I1383258600
sg6
S'V71219'
p496
sg8
I1383252900
sg9
S'B717'
p497
sg11
S'Volotea'
p498
sba(iflightmod
Flight
p499
(dp500
g3
S'Catania'
p501
sg5
I1383259500
sg6
S'V71265'
p502
sg8
I1383252900
sg9
S'B717'
p503
sg11
S'Volotea'
p504
sba(iflightmod
Flight
p505
(dp506
g3
S'Tirana'
p507
sg5
I1383283500
sg6
S'LZ675'
p508
sg8
I1383278400
sg9
S'A319'
p509
sg11
S'Belle Air'
p510
sba(iflightmod
Flight
p511
(dp512
g3
S'Chisinau'
p513
sg5
I1383285600
sg6
S'V3260'
p514
sg8
I1383277500
sg9
S'B733'
p515
sg11
S'Carpatair'
p516
sba(iflightmod
Flight
p517
(dp518
g3
S'Tirana'
p519
sg5
I1383287100
sg6
S'LZ675'
p520
sg8
I1383282000
sg9
S'A319'
p521
sg11
S'Belle Air'
p522
sba(iflightmod
Flight
p523
(dp524
g3
S'Chisinau'
p525
sg5
I1383289200
sg6
S'V3260'
p526
sg8
I1383281100
sg9
S'B733'
p527
sg11
S'Carpatair'
p528
sba(iflightmod
Flight
p529
(dp530
g3
S'Munich'
p531
sg5
I1383289500
sg6
S'EN8200'
p532
sg8
I1383285900
sg9
S'E95'
p533
sg11
S'Air Dolomiti'
p534
sba(iflightmod
Flight
p535
(dp536
g3
S'Philadelphia'
p537
sg5
I1383290100
sg6
S'US714'
p538
sg8
I1383259500
sg9
S'B762'
p539
sg11
S'US Airways'
p540
sba(iflightmod
Flight
p541
(dp542
g3
S'Zurich'
p543
sg5
I1383291600
sg6
S'LX1660'
p544
sg8
I1383287400
sg9
S'A320'
p545
sg11
S'Swiss'
p546
sba(iflightmod
Flight
p547
(dp548
g3
S'Paris'
p549
sg5
I1383292800
sg6
S'AF1126'
p550
sg8
I1383286800
sg9
S'A318'
p551
sg11
S'Air France'
p552
sba(iflightmod
Flight
p553
(dp554
g3
S'Paris'
p555
sg5
I1383292800
sg6
S'U24291'
p556
sg8
I1383286800
sg9
S'A320'
p557
sg11
S'EasyJet'
p558
sba(iflightmod
Flight
p559
(dp560
g3
S'Vienna'
p561
sg5
I1383252300
sg6
S'OS527'
p562
sg8
I1383248100
sg9
S'DH8D'
p563
sg11
S'Austrian Airlines'
p564
sba(iflightmod
Flight
p565
(dp566
g3
S'Brussels'
p567
sg5
I1383255300
sg6
S'SN3207'
p568
sg8
I1383249000
sg9
S'RJ1H'
p569
sg11
S'Brussels Airlines'
p570
sba(iflightmod
Flight
p571
(dp572
g3
S'London'
p573
sg5
I1383293700
sg6
S'ZB7252'
p574
sg8
I1383286200
sg9
S'A321'
p575
sg11
S'Monarch Airlines'
p576
sba(iflightmod
Flight
p577
(dp578
g3
S'Istanbul'
p579
sg5
I1383294300
sg6
S'TK1867'
p580
sg8
I1383285300
sg9
S'A321'
p581
sg11
S'Turkish Airlines'
p582
sba(iflightmod
Flight
p583
(dp584
g3
S'Naples'
p585
sg5
I1383296100
sg6
S'U2991'
p586
sg8
I1383291600
sg9
S'A319'
p587
sg11
S'EasyJet'
p588
sba(iflightmod
Flight
p589
(dp590
g3
S'Southend'
p591
sg5
I1383296400
sg6
S'U27397'
p592
sg8
I1383289200
sg9
S'A319'
p593
sg11
S'EasyJet'
p594
sba(iflightmod
Flight
p595
(dp596
g3
S'Bari'
p597
sg5
I1383254400
sg6
S'V71235'
p598
sg8
I1383249600
sg9
S'B712'
p599
sg11
S'Volotea'
p600
sba(iflightmod
Flight
p601
(dp602
g3
S'Rome'
p603
sg5
I1383254700
sg6
S'AZ1473'
p604
sg8
I1383250800
sg9
S'A320'
p605
sg11
S'Alitalia'
p606
sba(iflightmod
Flight
p607
(dp608
g3
S'Munich'
p609
sg5
I1383254700
sg6
S'EN8206'
p610
sg8
I1383251100
sg9
S'E190'
p611
sg11
S'Air Dolomiti'
p612
sba(iflightmod
Flight
p613
(dp614
g3
S'Lyon'
p615
sg5
I1383297300
sg6
S'A54522'
p616
sg8
I1383292500
sg9
S'CR7'
p617
sg11
S'HOP!'
p618
sba(iflightmod
Flight
p619
(dp620
g3
S'Vienna'
p621
sg5
I1383297600
sg6
S'OS521'
p622
sg8
I1383293400
sg9
S'DH4'
p623
sg11
S'Austrian Airlines'
p624
sba(iflightmod
Flight
p625
(dp626
g3
S'Palermo'
p627
sg5
I1383258600
sg6
S'V71219'
p628
sg8
I1383252900
sg9
S'B712'
p629
sg11
S'Volotea'
p630
sba(iflightmod
Flight
p631
(dp632
g3
S'Rome'
p633
sg5
I1383297900
sg6
S'AZ1471'
p634
sg8
I1383294000
sg9
S'A319'
p635
sg11
S'Alitalia'
p636
sba(iflightmod
Flight
p637
(dp638
g3
S'Frankfurt'
p639
sg5
I1383297900
sg6
S'LH324'
p640
sg8
I1383293100
sg9
S'A320'
p641
sg11
S'Lufthansa'
p642
sba(iflightmod
Flight
p643
(dp644
g3
S'Palermo'
p645
sg5
I1383298200
sg6
S'V71219'
p646
sg8
I1383292500
sg9
S'B717'
p647
sg11
S'Volotea'
p648
sba(iflightmod
Flight
p649
(dp650
g3
S'Catania'
p651
sg5
I1383298500
sg6
S'AP870'
p652
sg8
I1383292500
sg9
S'A320'
p653
sg11
S'Air One'
p654
sba(iflightmod
Flight
p655
(dp656
g3
S'Edinburgh'
p657
sg5
I1383299100
sg6
S'LS853'
p658
sg8
I1383289200
sg9
S'B733'
p659
sg11
S'Jet2'
p660
sba(iflightmod
Flight
p661
(dp662
g3
S'Leeds'
p663
sg5
I1383300000
sg6
S'LS343'
p664
sg8
I1383291000
sg9
S'73C'
p665
sg11
S'Jet2'
p666
sba(iflightmod
Flight
p667
(dp668
g3
S'Catania'
p669
sg5
I1383259500
sg6
S'V71265'
p670
sg8
I1383252900
sg9
S'B712'
p671
sg11
S'Volotea'
p672
sba(iflightmod
Flight
p673
(dp674
g3
S'Manchester'
p675
sg5
I1383300000
sg6
S'LS801'
p676
sg8
I1383291000
sg9
S'B733'
p677
sg11
S'Jet2'
p678
sba(iflightmod
Flight
p679
(dp680
g3
S'Vienna'
p681
sg5
I1383297600
sg6
S'OS521'
p682
sg8
I1383293400
sg9
S'DH8D'
p683
sg11
S'Austrian Airlines'
p684
sba(iflightmod
Flight
p685
(dp686
g3
S'Rome'
p687
sg5
I1383297900
sg6
S'AZ1471'
p688
sg8
I1383294000
sg9
S'A320'
p689
sg11
S'Alitalia'
p690
sba(iflightmod
Flight
p691
(dp692
g3
S'Palermo'
p693
sg5
I1383298200
sg6
S'V71219'
p694
sg8
I1383292500
sg9
S'B712'
p695
sg11
S'Volotea'
p696
sba(iflightmod
Flight
p697
(dp698
g3
S'Leeds'
p699
sg5
I1383300000
sg6
S'LS343'
p700
sg8
I1383291000
sg9
S'B733'
p701
sg11
S'Jet2'
p702
sba(iflightmod
Flight
p703
(dp704
g3
S'Rome'
p705
sg5
I1383300900
sg6
S'AZ1463'
p706
sg8
I1383297000
sg9
S'A320'
p707
sg11
S'Alitalia'
p708
sba(iflightmod
Flight
p709
(dp710
g3
S'London'
p711
sg5
I1383300900
sg6
S'BA2582'
p712
sg8
I1383293400
sg9
S'B734'
p713
sg11
S'British Airways'
p714
sba(iflightmod
Flight
p715
(dp716
g3
S'Madrid'
p717
sg5
I1383301200
sg6
S'IB3242'
p718
sg8
I1383292200
sg9
S'A321'
p719
sg11
S'Iberia'
p720
sba(iflightmod
Flight
p721
(dp722
g3
S'Bilbao'
p723
sg5
I1383301800
sg6
S'V71345'
p724
sg8
I1383294000
sg9
S'B712'
p725
sg11
S'Volotea'
p726
sba(iflightmod
Flight
p727
(dp728
g3
S'Berlin'
p729
sg5
I1383302400
sg6
S'U24651'
p730
sg8
I1383296100
sg9
S'A319'
p731
sg11
S'EasyJet'
p732
sba(iflightmod
Flight
p733
(dp734
g3
S'Amsterdam'
p735
sg5
I1383302700
sg6
S'KL1653'
p736
sg8
I1383296100
sg9
S'B738'
p737
sg11
S'KLM'
p738
sba(iflightmod
Flight
p739
(dp740
g3
S'London'
p741
sg5
I1383302700
sg6
S'U25263'
p742
sg8
I1383295200
sg9
S'A319'
p743
sg11
S'EasyJet'
p744
sba(iflightmod
Flight
p745
(dp746
g3
S'Lisbon'
p747
sg5
I1383302700
sg6
S'TP874'
p748
sg8
I1383292200
sg9
S'A320'
p749
sg11
S'TAP Portugal'
p750
sba(iflightmod
Flight
p751
(dp752
g3
S'Frankfurt'
p753
sg5
I1383303000
sg6
S'LH326'
p754
sg8
I1383298200
sg9
S'A321'
p755
sg11
S'Lufthansa'
p756
sba(iflightmod
Flight
p757
(dp758
g3
S'London'
p759
sg5
I1383303000
sg6
S'BA578'
p760
sg8
I1383295500
sg9
S'A319'
p761
sg11
S'British Airways'
p762
sba(iflightmod
Flight
p763
(dp764
g3
S'Moscow'
p765
sg5
I1383303000
sg6
S'SU2596'
p766
sg8
I1383290700
sg9
S'A320'
p767
sg11
S'Aeroflot'
p768
sba(iflightmod
Flight
p769
(dp770
g3
S'Paris'
p771
sg5
I1383303600
sg6
S'AF1426'
p772
sg8
I1383297600
sg9
S'A321'
p773
sg11
S'Air France'
p774
sba(iflightmod
Flight
p775
(dp776
g3
S'Dusseldorf'
p777
sg5
I1383303900
sg6
S'AB8862'
p778
sg8
I1383297600
sg9
S'A319'
p779
sg11
S'Air Berlin'
p780
sba(iflightmod
Flight
p781
(dp782
g3
S'Barcelona'
p783
sg5
I1383304800
sg6
S'VY6400'
p784
sg8
I1383298500
sg9
S'A320'
p785
sg11
S'Vueling'
p786
sba(iflightmod
Flight
p787
(dp788
g3
S'Marseille'
p789
sg5
I1383305400
sg6
S'AF4332'
p790
sg8
I1383300900
sg9
S'A319'
p791
sg11
S'Air France'
p792
sba(iflightmod
Flight
p793
(dp794
g3
S'Munich'
p795
sg5
I1383305400
sg6
S'EN8202'
p796
sg8
I1383301800
sg9
S'E95'
p797
sg11
S'Air Dolomiti'
p798
sba(iflightmod
Flight
p799
(dp800
g3
S'Paris'
p801
sg5
I1383306900
sg6
S'U23793'
p802
sg8
I1383300900
sg9
S'A319'
p803
sg11
S'EasyJet'
p804
sba(iflightmod
Flight
p805
(dp806
g3
S'Istanbul'
p807
sg5
I1383308400
sg6
S'TK1871'
p808
sg8
I1383299400
sg9
S'B738'
p809
sg11
S'Turkish Airlines'
p810
sba(iflightmod
Flight
p811
(dp812
g3
S'Frankfurt'
p813
sg5
I1383309300
sg6
S'LH328'
p814
sg8
I1383304500
sg9
S'A320'
p815
sg11
S'Lufthansa'
p816
sba(iflightmod
Flight
p817
(dp818
g3
S'Doha'
p819
sg5
I1383309600
sg6
S'QR129'
p820
sg8
I1383285900
sg9
S'A320'
p821
sg11
S'Qatar Airways'
p822
sba(iflightmod
Flight
p823
(dp824
g3
S'Dubai'
p825
sg5
I1383309900
sg6
S'EK135'
p826
sg8
I1383285900
sg9
S'B77W'
p827
sg11
S'Emirates'
p828
sba(iflightmod
Flight
p829
(dp830
g3
S'Zurich'
p831
sg5
I1383310800
sg6
S'LX1662'
p832
sg8
I1383306900
sg9
S'A319'
p833
sg11
S'Swiss'
p834
sba(iflightmod
Flight
p835
(dp836
g3
S'London'
p837
sg5
I1383312000
sg6
S'BA8479'
p838
sg8
I1383304500
sg9
S'E170'
p839
sg11
S'British Airways'
p840
sba(iflightmod
Flight
p841
(dp842
g3
S'Berlin'
p843
sg5
I1383312000
sg6
S'AB8990'
p844
sg8
I1383306000
sg9
S'73G'
p845
sg11
S'Air Berlin'
p846
sba(iflightmod
Flight
p847
(dp848
g3
S'Paris'
p849
sg5
I1383312300
sg6
S'TO3342'
p850
sg8
I1383306000
sg9
S'B738'
p851
sg11
S'Transavia France'
p852
sba(iflightmod
Flight
p853
(dp854
g3
S'Munich'
p855
sg5
I1383305400
sg6
S'EN8202'
p856
sg8
I1383301800
sg9
S'E190'
p857
sg11
S'Air Dolomiti'
p858
sba(iflightmod
Flight
p859
(dp860
g3
S'Prague'
p861
sg5
I1383312900
sg6
S'AP753'
p862
sg8
I1383307800
sg9
S'A320'
p863
sg11
S'Air One'
p864
sba(iflightmod
Flight
p865
(dp866
g3
S'Paris'
p867
sg5
I1383313200
sg6
S'AF1726'
p868
sg8
I1383307200
sg9
S'A321'
p869
sg11
S'Air France'
p870
sba(iflightmod
Flight
p871
(dp872
g3
S'Catania'
p873
sg5
I1383315000
sg6
S'V71263'
p874
sg8
I1383308700
sg9
S'B717'
p875
sg11
S'Volotea'
p876
sba(iflightmod
Flight
p877
(dp878
g3
S'Naples'
p879
sg5
I1383315000
sg6
S'U2995'
p880
sg8
I1383310500
sg9
S'A319'
p881
sg11
S'EasyJet'
p882
sba(iflightmod
Flight
p883
(dp884
g3
S'London'
p885
sg5
I1383315900
sg6
S'BA2584'
p886
sg8
I1383308700
sg9
S'B734'
p887
sg11
S'British Airways'
p888
sba(iflightmod
Flight
p889
(dp890
g3
S'Reggio Calabria'
p891
sg5
I1383316500
sg6
S'V71249'
p892
sg8
I1383310800
sg9
S'B717'
p893
sg11
S'Volotea'
p894
sba(iflightmod
Flight
p895
(dp896
g3
S'Rome'
p897
sg5
I1383316800
sg6
S'AZ1475'
p898
sg8
I1383312900
sg9
S'A320'
p899
sg11
S'Alitalia'
p900
sba(iflightmod
Flight
p901
(dp902
g3
S'Tunis'
p903
sg5
I1383316800
sg6
S'TU472'
p904
sg8
I1383310800
sg9
S'32A'
p905
sg11
S'Tunisair'
p906
sba(iflightmod
Flight
p907
(dp908
g3
S'Geneva'
p909
sg5
I1383317100
sg6
S'U21327'
p910
sg8
I1383312600
sg9
S'A319'
p911
sg11
S'EasyJet'
p912
sba(iflightmod
Flight
p913
(dp914
g3
S'Tirana'
p915
sg5
I1383319800
sg6
S'LZ673'
p916
sg8
I1383314400
sg9
S'A319'
p917
sg11
S'Belle Air'
p918
sba(iflightmod
Flight
p919
(dp920
g3
S'Cologne'
p921
sg5
I1383320100
sg6
S'4U814'
p922
sg8
I1383314700
sg9
S'A319'
p923
sg11
S'Germanwings'
p924
sba(iflightmod
Flight
p925
(dp926
g3
S'Munich'
p927
sg5
I1383320100
sg6
S'EN8204'
p928
sg8
I1383316500
sg9
S'E95'
p929
sg11
S'Air Dolomiti'
p930
sba(iflightmod
Flight
p931
(dp932
g3
S'Frankfurt'
p933
sg5
I1383309300
sg6
S'LH328'
p934
sg8
I1383304500
sg9
S'A321'
p935
sg11
S'Lufthansa'
p936
sba(iflightmod
Flight
p937
(dp938
g3
S'Lyon'
p939
sg5
I1383321000
sg6
S'A54526'
p940
sg8
I1383316200
sg9
S'CR7'
p941
sg11
S'HOP!'
p942
sba(iflightmod
Flight
p943
(dp944
g3
S'Amsterdam'
p945
sg5
I1383321300
sg6
S'KL1655'
p946
sg8
I1383315000
sg9
S'B737'
p947
sg11
S'KLM'
p948
sba(iflightmod
Flight
p949
(dp950
g3
S'Mulhouse'
p951
sg5
I1383321900
sg6
S'U21163'
p952
sg8
I1383318000
sg9
S'A319'
p953
sg11
S'EasyJet'
p954
sba(iflightmod
Flight
p955
(dp956
g3
S'London'
p957
sg5
I1383323400
sg6
S'U25267'
p958
sg8
I1383315900
sg9
S'A319'
p959
sg11
S'EasyJet'
p960
sba(iflightmod
Flight
p961
(dp962
g3
S'Istanbul'
p963
sg5
I1383325200
sg6
S'TK1869'
p964
sg8
I1383315900
sg9
S'B738'
p965
sg11
S'Turkish Airlines'
p966
sba(iflightmod
Flight
p967
(dp968
g3
S'Frankfurt'
p969
sg5
I1383325800
sg6
S'LH330'
p970
sg8
I1383321000
sg9
S'A320'
p971
sg11
S'Lufthansa'
p972
sba(iflightmod
Flight
p973
(dp974
g3
S'Vienna'
p975
sg5
I1383327000
sg6
S'OS529'
p976
sg8
I1383322800
sg9
S'DH4'
p977
sg11
S'Austrian Airlines'
p978
sba(iflightmod
Flight
p979
(dp980
g3
S'Lille'
p981
sg5
I1383327900
sg6
S'TO4002'
p982
sg8
I1383321900
sg9
S'B738'
p983
sg11
S'Transavia France'
p984
sba(iflightmod
Flight
p985
(dp986
g3
S'London'
p987
sg5
I1383328200
sg6
S'BA2586'
p988
sg8
I1383321300
sg9
S'A319'
p989
sg11
S'British Airways'
p990
sba(iflightmod
Flight
p991
(dp992
g3
S'Naples'
p993
sg5
I1383328200
sg6
S'U2997'
p994
sg8
I1383323700
sg9
S'A319'
p995
sg11
S'EasyJet'
p996
sba(iflightmod
Flight
p997
(dp998
g3
S'Zurich'
p999
sg5
I1383328200
sg6
S'LX1664'
p1000
sg8
I1383324000
sg9
S'AR1'
p1001
sg11
S'Swiss'
p1002
sba(iflightmod
Flight
p1003
(dp1004
g3
S'Palermo'
p1005
sg5
I1383328500
sg6
S'AP735'
p1006
sg8
I1383323100
sg9
S'A320'
p1007
sg11
S'Air One'
p1008
sba(iflightmod
Flight
p1009
(dp1010
g3
S'Rome'
p1011
sg5
I1383329100
sg6
S'AZ1467'
p1012
sg8
I1383325200
sg9
S'E170'
p1013
sg11
S'Alitalia'
p1014
sba(iflightmod
Flight
p1015
(dp1016
g3
S'Nice'
p1017
sg5
I1383329400
sg6
S'U21651'
p1018
sg8
I1383324600
sg9
S'A319'
p1019
sg11
S'EasyJet'
p1020
sba(iflightmod
Flight
p1021
(dp1022
g3
S'Madrid'
p1023
sg5
I1383329700
sg6
S'IB3246'
p1024
sg8
I1383321000
sg9
S'A321'
p1025
sg11
S'Iberia'
p1026
sba(iflightmod
Flight
p1027
(dp1028
g3
S'Paris'
p1029
sg5
I1383330000
sg6
S'U24295'
p1030
sg8
I1383324000
sg9
S'A320'
p1031
sg11
S'EasyJet'
p1032
sba(iflightmod
Flight
p1033
(dp1034
g3
S'Barcelona'
p1035
sg5
I1383331500
sg6
S'VY6402'
p1036
sg8
I1383325200
sg9
S'A320'
p1037
sg11
S'Vueling'
p1038
sba(iflightmod
Flight
p1039
(dp1040
g3
S'Berlin'
p1041
sg5
I1383333300
sg6
S'U24659'
p1042
sg8
I1383327000
sg9
S'A319'
p1043
sg11
S'EasyJet'
p1044
sba(iflightmod
Flight
p1045
(dp1046
g3
S'Paris'
p1047
sg5
I1383334200
sg6
S'U23795'
p1048
sg8
I1383328200
sg9
S'A319'
p1049
sg11
S'EasyJet'
p1050
sba(iflightmod
Flight
p1051
(dp1052
g3
S'Lisbon'
p1053
sg5
I1383334500
sg6
S'U27681'
p1054
sg8
I1383324000
sg9
S'A319'
p1055
sg11
S'EasyJet'
p1056
sba(iflightmod
Flight
p1057
(dp1058
g3
S'Rome'
p1059
sg5
I1383335400
sg6
S'U2985'
p1060
sg8
I1383331500
sg9
S'A319'
p1061
sg11
S'EasyJet'
p1062
sba(iflightmod
Flight
p1063
(dp1064
g3
S'Vienna'
p1065
sg5
I1383338700
sg6
S'OS527'
p1066
sg8
I1383334500
sg9
S'DH4'
p1067
sg11
S'Austrian Airlines'
p1068
sba(iflightmod
Flight
p1069
(dp1070
g3
S'Moscow'
p1071
sg5
I1383339600
sg6
S'SU2422'
p1072
sg8
I1383327300
sg9
S'A320'
p1073
sg11
S'Aeroflot'
p1074
sba(iflightmod
Flight
p1075
(dp1076
g3
S'Paris'
p1077
sg5
I1383340200
sg6
S'AF1326'
p1078
sg8
I1383334200
sg9
S'A321'
p1079
sg11
S'Air France'
p1080
sba(iflightmod
Flight
p1081
(dp1082
g3
S'Amsterdam'
p1083
sg5
I1383340800
sg6
S'KL1659'
p1084
sg8
I1383334500
sg9
S'B738'
p1085
sg11
S'KLM'
p1086
sba(iflightmod
Flight
p1087
(dp1088
g3
S'Rome'
p1089
sg5
I1383341100
sg6
S'AZ1473'
p1090
sg8
I1383337200
sg9
S'A320'
p1091
sg11
S'Alitalia'
p1092
sba(iflightmod
Flight
p1093
(dp1094
g3
S'Munich'
p1095
sg5
I1383341100
sg6
S'EN8206'
p1096
sg8
I1383337500
sg9
S'E95'
p1097
sg11
S'Air Dolomiti'
p1098
sba(iflightmod
Flight
p1099
(dp1100
g3
S'Brussels'
p1101
sg5
I1383341700
sg6
S'SN3207'
p1102
sg8
I1383335400
sg9
S'AR1'
p1103
sg11
S'Brussels Airlines'
p1104
sba(iflightmod
Flight
p1105
(dp1106
g3
S'Frankfurt'
p1107
sg5
I1383344100
sg6
S'LH332'
p1108
sg8
I1383339300
sg9
S'A321'
p1109
sg11
S'Lufthansa'
p1110
sba(iflightmod
Flight
p1111
(dp1112
g3
S'Catania'
p1113
sg5
I1383344700
sg6
S'AP872'
p1114
sg8
I1383338700
sg9
S'A320'
p1115
sg11
S'Air One'
p1116
sba(iflightmod
Flight
p1117
(dp1118
g3
S'Casablanca'
p1119
sg5
I1383369600
sg6
S'3O2477'
p1120
sg8
I1383354900
sg9
S'A320'
p1121
sg11
S'Air Arabia Maroc'
p1122
sba(iflightmod
Flight
p1123
(dp1124
g3
S'Casablanca'
p1125
sg5
I1383369600
sg6
S'3O2477'
p1126
sg8
I1383351300
sg9
S'A320'
p1127
sg11
S'Air Arabia Maroc'
p1128
sba(iflightmod
Flight
p1129
(dp1130
g3
S'Tirana'
p1131
sg5
I1383373500
sg6
S'LZ675'
p1132
sg8
I1383368400
sg9
S'A319'
p1133
sg11
S'Belle Air'
p1134
sba(iflightmod
Flight
p1135
(dp1136
g3
S'Munich'
p1137
sg5
I1383375900
sg6
S'EN8200'
p1138
sg8
I1383372300
sg9
S'E95'
p1139
sg11
S'Air Dolomiti'
p1140
sba(iflightmod
Flight
p1141
(dp1142
g3
S'Philadelphia'
p1143
sg5
I1383376500
sg6
S'US714'
p1144
sg8
I1383345900
sg9
S'B762'
p1145
sg11
S'US Airways'
p1146
sba(iflightmod
Flight
p1147
(dp1148
g3
S'Zurich'
p1149
sg5
I1383378000
sg6
S'LX1660'
p1150
sg8
I1383373800
sg9
S'A320'
p1151
sg11
S'Swiss'
p1152
sba(iflightmod
Flight
p1153
(dp1154
g3
S'Lyon'
p1155
sg5
I1383378900
sg6
S'U24463'
p1156
sg8
I1383374400
sg9
S'A319'
p1157
sg11
S'EasyJet'
p1158
sba(iflightmod
Flight
p1159
(dp1160
g3
S'Paris'
p1161
sg5
I1383379200
sg6
S'AF1126'
p1162
sg8
I1383373200
sg9
S'A318'
p1163
sg11
S'Air France'
p1164
sba(iflightmod
Flight
p1165
(dp1166
g3
S'Paris'
p1167
sg5
I1383379200
sg6
S'U24291'
p1168
sg8
I1383373200
sg9
S'A320'
p1169
sg11
S'EasyJet'
p1170
sba(iflightmod
Flight
p1171
(dp1172
g3
S'Rome'
p1173
sg5
I1383380700
sg6
S'AZ1471'
p1174
sg8
I1383376800
sg9
S'E190'
p1175
sg11
S'Alitalia'
p1176
sba(iflightmod
Flight
p1177
(dp1178
g3
S'Istanbul'
p1179
sg5
I1383380700
sg6
S'TK1867'
p1180
sg8
I1383371700
sg9
S'A321'
p1181
sg11
S'Turkish Airlines'
p1182
sba(iflightmod
Flight
p1183
(dp1184
g3
S'Naples'
p1185
sg5
I1383382500
sg6
S'U2991'
p1186
sg8
I1383378000
sg9
S'A319'
p1187
sg11
S'EasyJet'
p1188
sba(iflightmod
Flight
p1189
(dp1190
g3
S'Vienna'
p1191
sg5
I1383338700
sg6
S'OS527'
p1192
sg8
I1383334500
sg9
S'DH8D'
p1193
sg11
S'Austrian Airlines'
p1194
sba(iflightmod
Flight
p1195
(dp1196
g3
S'Rome'
p1197
sg5
I1383382800
sg6
S'U2983'
p1198
sg8
I1383378600
sg9
S'A319'
p1199
sg11
S'EasyJet'
p1200
sba(iflightmod
Flight
p1201
(dp1202
g3
S'Manchester'
p1203
sg5
I1383382800
sg6
S'U21863'
p1204
sg8
I1383373800
sg9
S'A320'
p1205
sg11
S'EasyJet'
p1206
sba(iflightmod
Flight
p1207
(dp1208
g3
S'Vienna'
p1209
sg5
I1383384000
sg6
S'OS521'
p1210
sg8
I1383379800
sg9
S'DH4'
p1211
sg11
S'Austrian Airlines'
p1212
sba(iflightmod
Flight
p1213
(dp1214
g3
S'Brussels'
p1215
sg5
I1383341700
sg6
S'SN3207'
p1216
sg8
I1383335400
sg9
S'RJ1H'
p1217
sg11
S'Brussels Airlines'
p1218
sba(iflightmod
Flight
p1219
(dp1220
g3
S'Birmingham'
p1221
sg5
I1383384300
sg6
S'ZB5484'
p1222
sg8
I1383376500
sg9
S'A320'
p1223
sg11
S'Monarch Airlines'
p1224
sba(iflightmod
Flight
p1225
(dp1226
g3
S'Munich'
p1227
sg5
I1383341100
sg6
S'EN8206'
p1228
sg8
I1383337500
sg9
S'E190'
p1229
sg11
S'Air Dolomiti'
p1230
sba(iflightmod
Flight
p1231
(dp1232
g3
S'Frankfurt'
p1233
sg5
I1383395700
sg6
S'LH328'
p1234
sg8
I1383390900
sg9
S'A320'
p1235
sg11
S'Lufthansa'
p1236
sba(iflightmod
Flight
p1237
(dp1238
g3
S'Doha'
p1239
sg5
I1383396000
sg6
S'QR129'
p1240
sg8
I1383372300
sg9
S'A320'
p1241
sg11
S'Qatar Airways'
p1242
sba(iflightmod
Flight
p1243
(dp1244
g3
S'Dubai'
p1245
sg5
I1383396300
sg6
S'EK135'
p1246
sg8
I1383372300
sg9
S'B77W'
p1247
sg11
S'Emirates'
p1248
sba(iflightmod
Flight
p1249
(dp1250
g3
S'Paris'
p1251
sg5
I1383396300
sg6
S'U24293'
p1252
sg8
I1383390300
sg9
S'A320'
p1253
sg11
S'EasyJet'
p1254
sba(iflightmod
Flight
p1255
(dp1256
g3
S'Zurich'
p1257
sg5
I1383397200
sg6
S'LX1662'
p1258
sg8
I1383393300
sg9
S'A320'
p1259
sg11
S'Swiss'
p1260
sba(iflightmod
Flight
p1261
(dp1262
g3
S'Paris'
p1263
sg5
I1383399600
sg6
S'AF1726'
p1264
sg8
I1383393600
sg9
S'A319'
p1265
sg11
S'Air France'
p1266
sba(iflightmod
Flight
p1267
(dp1268
g3
S'Catania'
p1269
sg5
I1383401100
sg6
S'V71263'
p1270
sg8
I1383394800
sg9
S'B717'
p1271
sg11
S'Volotea'
p1272
sba(iflightmod
Flight
p1273
(dp1274
g3
S'Moscow'
p1275
sg5
I1383401400
sg6
S'UN393'
p1276
sg8
I1383389400
sg9
S'B738'
p1277
sg11
S'Transaero Airlines'
p1278
sba(iflightmod
Flight
p1279
(dp1280
g3
S'London'
p1281
sg5
I1383402000
sg6
S'BA2584'
p1282
sg8
I1383394800
sg9
S'B734'
p1283
sg11
S'British Airways'
p1284
sba(iflightmod
Flight
p1285
(dp1286
g3
S'Palermo'
p1287
sg5
I1383402000
sg6
S'AP735'
p1288
sg8
I1383396600
sg9
S'A320'
p1289
sg11
S'Air One'
p1290
sba(iflightmod
Flight
p1291
(dp1292
g3
S'Rome'
p1293
sg5
I1383403200
sg6
S'AZ1475'
p1294
sg8
I1383399300
sg9
S'A320'
p1295
sg11
S'Alitalia'
p1296
sba(iflightmod
Flight
p1297
(dp1298
g3
S'Marseille'
p1299
sg5
I1383404700
sg6
S'AF4332'
p1300
sg8
I1383400200
sg9
S'A319'
p1301
sg11
S'Air France'
p1302
sba(iflightmod
Flight
p1303
(dp1304
g3
S'London'
p1305
sg5
I1383405600
sg6
S'U25267'
p1306
sg8
I1383398100
sg9
S'A319'
p1307
sg11
S'EasyJet'
p1308
sba(iflightmod
Flight
p1309
(dp1310
g3
S'Munich'
p1311
sg5
I1383406500
sg6
S'EN8204'
p1312
sg8
I1383402900
sg9
S'E95'
p1313
sg11
S'Air Dolomiti'
p1314
sba(iflightmod
Flight
p1315
(dp1316
g3
S'Amsterdam'
p1317
sg5
I1383407700
sg6
S'KL1655'
p1318
sg8
I1383401400
sg9
S'73J'
p1319
sg11
S'KLM'
p1320
sba(iflightmod
Flight
p1321
(dp1322
g3
S'Paris'
p1323
sg5
I1383410100
sg6
S'AF1226'
p1324
sg8
I1383404100
sg9
S'A320'
p1325
sg11
S'Air France'
p1326
sba(iflightmod
Flight
p1327
(dp1328
g3
S'Istanbul'
p1329
sg5
I1383411600
sg6
S'TK1869'
p1330
sg8
I1383402300
sg9
S'A320'
p1331
sg11
S'Turkish Airlines'
p1332
sba(iflightmod
Flight
p1333
(dp1334
g3
S'Naples'
p1335
sg5
I1383411600
sg6
S'U2997'
p1336
sg8
I1383407100
sg9
S'A319'
p1337
sg11
S'EasyJet'
p1338
sba(iflightmod
Flight
p1339
(dp1340
g3
S'Frankfurt'
p1341
sg5
I1383412200
sg6
S'LH330'
p1342
sg8
I1383407400
sg9
S'A320'
p1343
sg11
S'Lufthansa'
p1344
sba(iflightmod
Flight
p1345
(dp1346
g3
S'Vienna'
p1347
sg5
I1383413400
sg6
S'OS529'
p1348
sg8
I1383409200
sg9
S'DH4'
p1349
sg11
S'Austrian Airlines'
p1350
sba(iflightmod
Flight
p1351
(dp1352
g3
S'Zurich'
p1353
sg5
I1383414600
sg6
S'LX1664'
p1354
sg8
I1383410400
sg9
S'AR1'
p1355
sg11
S'Swiss'
p1356
sba(iflightmod
Flight
p1357
(dp1358
g3
S'Rome'
p1359
sg5
I1383415500
sg6
S'AZ1467'
p1360
sg8
I1383411600
sg9
S'E75'
p1361
sg11
S'Alitalia'
p1362
sba(iflightmod
Flight
p1363
(dp1364
g3
S'Copenhagen'
p1365
sg5
I1383415800
sg6
S'SK2691'
p1366
sg8
I1383408600
sg9
S'CR9'
p1367
sg11
S'SAS'
p1368
sba(iflightmod
Flight
p1369
(dp1370
g3
S'London'
p1371
sg5
I1383415800
sg6
S'BA2586'
p1372
sg8
I1383408900
sg9
S'B734'
p1373
sg11
S'British Airways'
p1374
sba(iflightmod
Flight
p1375
(dp1376
g3
S'Madrid'
p1377
sg5
I1383416100
sg6
S'IB3246'
p1378
sg8
I1383407400
sg9
S'A321'
p1379
sg11
S'Iberia'
p1380
sba(iflightmod
Flight
p1381
(dp1382
g3
S'Paris'
p1383
sg5
I1383416400
sg6
S'U24295'
p1384
sg8
I1383410400
sg9
S'A320'
p1385
sg11
S'EasyJet'
p1386
sba(iflightmod
Flight
p1387
(dp1388
g3
S'Lamezia Terme'
p1389
sg5
I1383417600
sg6
S'AP729'
p1390
sg8
I1383412200
sg9
S'A320'
p1391
sg11
S'Air One'
p1392
sba(iflightmod
Flight
p1393
(dp1394
g3
S'Munich'
p1395
sg5
I1383406500
sg6
S'EN8204'
p1396
sg8
I1383402900
sg9
S'E190'
p1397
sg11
S'Air Dolomiti'
p1398
sba(iflightmod
Flight
p1399
(dp1400
g3
S'Amsterdam'
p1401
sg5
I1383407700
sg6
S'KL1655'
p1402
sg8
I1383401400
sg9
S'B739'
p1403
sg11
S'KLM'
p1404
sba(iflightmod
Flight
p1405
(dp1406
g3
S'Bordeaux'
p1407
sg5
I1383419100
sg6
S'V71347'
p1408
sg8
I1383412500
sg9
S'B717'
p1409
sg11
S'Volotea'
p1410
sba(iflightmod
Flight
p1411
(dp1412
g3
S'Vienna'
p1413
sg5
I1383425100
sg6
S'OS527'
p1414
sg8
I1383420900
sg9
S'DH4'
p1415
sg11
S'Austrian Airlines'
p1416
sba(iflightmod
Flight
p1417
(dp1418
g3
S'Moscow'
p1419
sg5
I1383426000
sg6
S'SU2422'
p1420
sg8
I1383413700
sg9
S'A320'
p1421
sg11
S'Aeroflot'
p1422
sba(iflightmod
Flight
p1423
(dp1424
g3
S'Paris'
p1425
sg5
I1383426600
sg6
S'AF1326'
p1426
sg8
I1383420600
sg9
S'A320'
p1427
sg11
S'Air France'
p1428
sba(iflightmod
Flight
p1429
(dp1430
g3
S'Amsterdam'
p1431
sg5
I1383427200
sg6
S'KL1659'
p1432
sg8
I1383420900
sg9
S'73J'
p1433
sg11
S'KLM'
p1434
sba(iflightmod
Flight
p1435
(dp1436
g3
S'Rome'
p1437
sg5
I1383427500
sg6
S'AZ1473'
p1438
sg8
I1383423600
sg9
S'A320'
p1439
sg11
S'Alitalia'
p1440
sba(iflightmod
Flight
p1441
(dp1442
g3
S'Munich'
p1443
sg5
I1383427500
sg6
S'EN8206'
p1444
sg8
I1383423900
sg9
S'E95'
p1445
sg11
S'Air Dolomiti'
p1446
sba(iflightmod
Flight
p1447
(dp1448
g3
S'Frankfurt'
p1449
sg5
I1383430500
sg6
S'LH332'
p1450
sg8
I1383425700
sg9
S'A321'
p1451
sg11
S'Lufthansa'
p1452
sba(iflightmod
Flight
p1453
(dp1454
g3
S'Tirana'
p1455
sg5
I1383459900
sg6
S'LZ675'
p1456
sg8
I1383454800
sg9
S'A319'
p1457
sg11
S'Belle Air'
p1458
sba(iflightmod
Flight
p1459
(dp1460
g3
S'Zurich'
p1461
sg5
I1383414600
sg6
S'LX1664'
p1462
sg8
I1383410400
sg9
S'RJ1H'
p1463
sg11
S'Swiss'
p1464
sba(iflightmod
Flight
p1465
(dp1466
g3
S'Rome'
p1467
sg5
I1383415500
sg6
S'AZ1467'
p1468
sg8
I1383411600
sg9
S'E170'
p1469
sg11
S'Alitalia'
p1470
sba(iflightmod
Flight
p1471
(dp1472
g3
S'Copenhagen'
p1473
sg5
I1383415800
sg6
S'SK2691'
p1474
sg8
I1383408600
sg9
S'CRJ9'
p1475
sg11
S'SAS'
p1476
sba(iflightmod
Flight
p1477
(dp1478
g3
S'Bordeaux'
p1479
sg5
I1383419100
sg6
S'V71347'
p1480
sg8
I1383412500
sg9
S'B712'
p1481
sg11
S'Volotea'
p1482
sba(iflightmod
Flight
p1483
(dp1484
g3
S'Philadelphia'
p1485
sg5
I1383462900
sg6
S'US714'
p1486
sg8
I1383432300
sg9
S'B762'
p1487
sg11
S'US Airways'
p1488
sba(iflightmod
Flight
p1489
(dp1490
g3
S'Zurich'
p1491
sg5
I1383464400
sg6
S'LX1660'
p1492
sg8
I1383460200
sg9
S'AR1'
p1493
sg11
S'Swiss'
p1494
sba(iflightmod
Flight
p1495
(dp1496
g3
S'Paris'
p1497
sg5
I1383465600
sg6
S'AF1126'
p1498
sg8
I1383459600
sg9
S'A318'
p1499
sg11
S'Air France'
p1500
sba(iflightmod
Flight
p1501
(dp1502
g3
S'Barcelona'
p1503
sg5
I1383466500
sg6
S'VY6404'
p1504
sg8
I1383460200
sg9
S'A320'
p1505
sg11
S'Vueling'
p1506
sba(iflightmod
Flight
p1507
(dp1508
g3
S'Naples'
p1509
sg5
I1383466500
sg6
S'U2993'
p1510
sg8
I1383461700
sg9
S'A319'
p1511
sg11
S'EasyJet'
p1512
sba(iflightmod
Flight
p1513
(dp1514
g3
S'Istanbul'
p1515
sg5
I1383467100
sg6
S'TK1867'
p1516
sg8
I1383458100
sg9
S'A321'
p1517
sg11
S'Turkish Airlines'
p1518
sba(iflightmod
Flight
p1519
(dp1520
g3
S'Hamburg'
p1521
sg5
I1383468600
sg6
S'AB8982'
p1522
sg8
I1383462300
sg9
S'B738'
p1523
sg11
S'Air Berlin'
p1524
sba(iflightmod
Flight
p1525
(dp1526
g3
S'Paris'
p1527
sg5
I1383469500
sg6
S'U24291'
p1528
sg8
I1383463500
sg9
S'A320'
p1529
sg11
S'EasyJet'
p1530
sba(iflightmod
Flight
p1531
(dp1532
g3
S'Vienna'
p1533
sg5
I1383470400
sg6
S'OS521'
p1534
sg8
I1383466200
sg9
S'DH4'
p1535
sg11
S'Austrian Airlines'
p1536
sba(iflightmod
Flight
p1537
(dp1538
g3
S'Frankfurt'
p1539
sg5
I1383470700
sg6
S'LH324'
p1540
sg8
I1383465900
sg9
S'A320'
p1541
sg11
S'Lufthansa'
p1542
sba(iflightmod
Flight
p1543
(dp1544
g3
S'Catania'
p1545
sg5
I1383471300
sg6
S'AP870'
p1546
sg8
I1383465300
sg9
S'A320'
p1547
sg11
S'Air One'
p1548
sba(iflightmod
Flight
p1549
(dp1550
g3
S'Birmingham'
p1551
sg5
I1383471600
sg6
S'ZB5484'
p1552
sg8
I1383463800
sg9
S'A320'
p1553
sg11
S'Monarch Airlines'
p1554
sba(iflightmod
Flight
p1555
(dp1556
g3
S'London'
p1557
sg5
I1383472200
sg6
S'BA2582'
p1558
sg8
I1383464700
sg9
S'B734'
p1559
sg11
S'British Airways'
p1560
sba(iflightmod
Flight
p1561
(dp1562
g3
S'Rome'
p1563
sg5
I1383473700
sg6
S'AZ1463'
p1564
sg8
I1383469800
sg9
S'A320'
p1565
sg11
S'Alitalia'
p1566
sba(iflightmod
Flight
p1567
(dp1568
g3
S'Madrid'
p1569
sg5
I1383474000
sg6
S'IB3242'
p1570
sg8
I1383465000
sg9
S'A321'
p1571
sg11
S'Iberia'
p1572
sba(iflightmod
Flight
p1573
(dp1574
g3
S'Berlin'
p1575
sg5
I1383474300
sg6
S'AB3772'
p1576
sg8
I1383467400
sg9
S'73G'
p1577
sg11
S'Air Berlin'
p1578
sba(iflightmod
Flight
p1579
(dp1580
g3
S'Marseille'
p1581
sg5
I1383475200
sg6
S'AF4332'
p1582
sg8
I1383470700
sg9
S'A319'
p1583
sg11
S'Air France'
p1584
sba(iflightmod
Flight
p1585
(dp1586
g3
S'Amsterdam'
p1587
sg5
I1383475500
sg6
S'KL1653'
p1588
sg8
I1383468900
sg9
S'B738'
p1589
sg11
S'KLM'
p1590
sba(iflightmod
Flight
p1591
(dp1592
g3
S'Brussels'
p1593
sg5
I1383475500
sg6
S'SN3201'
p1594
sg8
I1383469500
sg9
S'AR1'
p1595
sg11
S'Brussels Airlines'
p1596
sba(iflightmod
Flight
p1597
(dp1598
g3
S'Frankfurt'
p1599
sg5
I1383475800
sg6
S'LH326'
p1600
sg8
I1383471000
sg9
S'A321'
p1601
sg11
S'Lufthansa'
p1602
sba(iflightmod
Flight
p1603
(dp1604
g3
S'London'
p1605
sg5
I1383475800
sg6
S'BA578'
p1606
sg8
I1383468300
sg9
S'A319'
p1607
sg11
S'British Airways'
p1608
sba(iflightmod
Flight
p1609
(dp1610
g3
S'Moscow'
p1611
sg5
I1383475800
sg6
S'SU2596'
p1612
sg8
I1383463500
sg9
S'A320'
p1613
sg11
S'Aeroflot'
p1614
sba(iflightmod
Flight
p1615
(dp1616
g3
S'Munich'
p1617
sg5
I1383476100
sg6
S'EN8202'
p1618
sg8
I1383472500
sg9
S'E95'
p1619
sg11
S'Air Dolomiti'
p1620
sba(iflightmod
Flight
p1621
(dp1622
g3
S'Paris'
p1623
sg5
I1383476400
sg6
S'AF1426'
p1624
sg8
I1383470400
sg9
S'A318'
p1625
sg11
S'Air France'
p1626
sba(iflightmod
Flight
p1627
(dp1628
g3
S'Bordeaux'
p1629
sg5
I1383479100
sg6
S'V71347'
p1630
sg8
I1383472500
sg9
S'B712'
p1631
sg11
S'Volotea'
p1632
sba(iflightmod
Flight
p1633
(dp1634
g3
S'Manchester'
p1635
sg5
I1383479100
sg6
S'LS801'
p1636
sg8
I1383470100
sg9
S'B733'
p1637
sg11
S'Jet2'
p1638
sba(iflightmod
Flight
p1639
(dp1640
g3
S'Berlin'
p1641
sg5
I1383479100
sg6
S'U24651'
p1642
sg8
I1383472800
sg9
S'A319'
p1643
sg11
S'EasyJet'
p1644
sba(iflightmod
Flight
p1645
(dp1646
g3
S'Istanbul'
p1647
sg5
I1383481200
sg6
S'TK1871'
p1648
sg8
I1383472200
sg9
S'B738'
p1649
sg11
S'Turkish Airlines'
p1650
sba(iflightmod
Flight
p1651
(dp1652
g3
S'Toulouse'
p1653
sg5
I1383481200
sg6
S'AF4374'
p1654
sg8
I1383475200
sg9
S'A320'
p1655
sg11
S'Air France'
p1656
sba(iflightmod
Flight
p1657
(dp1658
g3
S'Lyon'
p1659
sg5
I1383481500
sg6
S'U24465'
p1660
sg8
I1383477000
sg9
S'A319'
p1661
sg11
S'EasyJet'
p1662
sba(iflightmod
Flight
p1663
(dp1664
g3
S'Frankfurt'
p1665
sg5
I1383482100
sg6
S'LH328'
p1666
sg8
I1383477300
sg9
S'A320'
p1667
sg11
S'Lufthansa'
p1668
sba(iflightmod
Flight
p1669
(dp1670
g3
S'Doha'
p1671
sg5
I1383482400
sg6
S'QR129'
p1672
sg8
I1383458700
sg9
S'A320'
p1673
sg11
S'Qatar Airways'
p1674
sba(iflightmod
Flight
p1675
(dp1676
g3
S'Dubai'
p1677
sg5
I1383482700
sg6
S'EK135'
p1678
sg8
I1383458700
sg9
S'B77W'
p1679
sg11
S'Emirates'
p1680
sba(iflightmod
Flight
p1681
(dp1682
g3
S'Dusseldorf'
p1683
sg5
I1383483000
sg6
S'AB8862'
p1684
sg8
I1383476700
sg9
S'A320'
p1685
sg11
S'Air Berlin'
p1686
sba(iflightmod
Flight
p1687
(dp1688
g3
S'Zurich'
p1689
sg5
I1383483600
sg6
S'LX1662'
p1690
sg8
I1383479700
sg9
S'32A'
p1691
sg11
S'Swiss'
p1692
sba(iflightmod
Flight
p1693
(dp1694
g3
S'Paris'
p1695
sg5
I1383485100
sg6
S'U23793'
p1696
sg8
I1383479100
sg9
S'A319'
p1697
sg11
S'EasyJet'
p1698
sba(iflightmod
Flight
p1699
(dp1700
g3
S'Reggio Calabria'
p1701
sg5
I1383485400
sg6
S'V71249'
p1702
sg8
I1383479700
sg9
S'B717'
p1703
sg11
S'Volotea'
p1704
sba(iflightmod
Flight
p1705
(dp1706
g3
S'Prague'
p1707
sg5
I1383485700
sg6
S'AP753'
p1708
sg8
I1383480600
sg9
S'A320'
p1709
sg11
S'Air One'
p1710
sba(iflightmod
Flight
p1711
(dp1712
g3
S'Paris'
p1713
sg5
I1383486000
sg6
S'AF1726'
p1714
sg8
I1383480000
sg9
S'A318'
p1715
sg11
S'Air France'
p1716
sba(iflightmod
Flight
p1717
(dp1718
g3
S'Paris'
p1719
sg5
I1383487200
sg6
S'TO3342'
p1720
sg8
I1383480900
sg9
S'B738'
p1721
sg11
S'Transavia France'
p1722
sba(iflightmod
Flight
p1723
(dp1724
g3
S'Naples'
p1725
sg5
I1383487800
sg6
S'U2995'
p1726
sg8
I1383483300
sg9
S'A319'
p1727
sg11
S'EasyJet'
p1728
sba(iflightmod
Flight
p1729
(dp1730
g3
S'Catania'
p1731
sg5
I1383488700
sg6
S'V71263'
p1732
sg8
I1383482400
sg9
S'B717'
p1733
sg11
S'Volotea'
p1734
sba(iflightmod
Flight
p1735
(dp1736
g3
S'London'
p1737
sg5
I1383488700
sg6
S'BA2584'
p1738
sg8
I1383481500
sg9
S'A319'
p1739
sg11
S'British Airways'
p1740
sba(iflightmod
Flight
p1741
(dp1742
g3
S'Rome'
p1743
sg5
I1383489600
sg6
S'AZ1475'
p1744
sg8
I1383485700
sg9
S'A320'
p1745
sg11
S'Alitalia'
p1746
sba(iflightmod
Flight
p1747
(dp1748
g3
S'Tunis'
p1749
sg5
I1383489600
sg6
S'TU472'
p1750
sg8
I1383483600
sg9
S'32A'
p1751
sg11
S'Tunisair'
p1752
sba(iflightmod
Flight
p1753
(dp1754
g3
S'Southend'
p1755
sg5
I1383489900
sg6
S'U27397'
p1756
sg8
I1383482700
sg9
S'A319'
p1757
sg11
S'EasyJet'
p1758
sba(iflightmod
Flight
p1759
(dp1760
g3
S'Chisinau'
p1761
sg5
I1383491400
sg6
S'V3260'
p1762
sg8
I1383483000
sg9
S'B733'
p1763
sg11
S'Carpatair'
p1764
sba(iflightmod
Flight
p1765
(dp1766
g3
S'Stuttgart'
p1767
sg5
I1383491400
sg6
S'AB8984'
p1768
sg8
I1383487200
sg9
S'DH4'
p1769
sg11
S'Air Berlin'
p1770
sba(iflightmod
Flight
p1771
(dp1772
g3
S'Lisbon'
p1773
sg5
I1383492600
sg6
S'TP876'
p1774
sg8
I1383481800
sg9
S'A320'
p1775
sg11
S'TAP Portugal'
p1776
sba(iflightmod
Flight
p1777
(dp1778
g3
S'Zurich'
p1779
sg5
I1383483600
sg6
S'LX1662'
p1780
sg8
I1383479700
sg9
S'A320'
p1781
sg11
S'Swiss'
p1782
sba(iflightmod
Flight
p1783
(dp1784
g3
S'Munich'
p1785
sg5
I1383492900
sg6
S'EN8204'
p1786
sg8
I1383489300
sg9
S'E95'
p1787
sg11
S'Air Dolomiti'
p1788
sba(iflightmod
Flight
p1789
(dp1790
g3
S'Cologne'
p1791
sg5
I1383493500
sg6
S'4U814'
p1792
sg8
I1383488100
sg9
S'A319'
p1793
sg11
S'Germanwings'
p1794
sba(iflightmod
Flight
p1795
(dp1796
g3
S'Geneva'
p1797
sg5
I1383493500
sg6
S'U21327'
p1798
sg8
I1383489000
sg9
S'A319'
p1799
sg11
S'EasyJet'
p1800
sba(iflightmod
Flight
p1801
(dp1802
g3
S'Berlin'
p1803
sg5
I1383499500
sg6
S'AB8990'
p1804
sg8
I1383493800
sg9
S'73G'
p1805
sg11
S'Air Berlin'
p1806
sba(iflightmod
Flight
p1807
(dp1808
g3
S'Vienna'
p1809
sg5
I1383499800
sg6
S'OS529'
p1810
sg8
I1383495600
sg9
S'DH4'
p1811
sg11
S'Austrian Airlines'
p1812
sba(iflightmod
Flight
p1813
(dp1814
g3
S'London'
p1815
sg5
I1383501000
sg6
S'BA2586'
p1816
sg8
I1383493800
sg9
S'B734'
p1817
sg11
S'British Airways'
p1818
sba(iflightmod
Flight
p1819
(dp1820
g3
S'Naples'
p1821
sg5
I1383501000
sg6
S'U2997'
p1822
sg8
I1383496500
sg9
S'A319'
p1823
sg11
S'EasyJet'
p1824
sba(iflightmod
Flight
p1825
(dp1826
g3
S'Zurich'
p1827
sg5
I1383501000
sg6
S'LX1664'
p1828
sg8
I1383496800
sg9
S'A320'
p1829
sg11
S'Swiss'
p1830
sba(iflightmod
Flight
p1831
(dp1832
g3
S'Palermo'
p1833
sg5
I1383501300
sg6
S'AP735'
p1834
sg8
I1383495900
sg9
S'A320'
p1835
sg11
S'Air One'
p1836
sba(iflightmod
Flight
p1837
(dp1838
g3
S'Rome'
p1839
sg5
I1383501900
sg6
S'AZ1467'
p1840
sg8
I1383498000
sg9
S'A319'
p1841
sg11
S'Alitalia'
p1842
sba(iflightmod
Flight
p1843
(dp1844
g3
S'London'
p1845
sg5
I1383502800
sg6
S'BA8479'
p1846
sg8
I1383495300
sg9
S'E170'
p1847
sg11
S'British Airways'
p1848
sba(iflightmod
Flight
p1849
(dp1850
g3
S'Rome'
p1851
sg5
I1383503400
sg6
S'U2985'
p1852
sg8
I1383499500
sg9
S'A319'
p1853
sg11
S'EasyJet'
p1854
sba(iflightmod
Flight
p1855
(dp1856
g3
S'Barcelona'
p1857
sg5
I1383504300
sg6
S'VY6402'
p1858
sg8
I1383498000
sg9
S'A320'
p1859
sg11
S'Vueling'
p1860
sba(iflightmod
Flight
p1861
(dp1862
g3
S'Newcastle'
p1863
sg5
I1383504300
sg6
S'LS559'
p1864
sg8
I1383494400
sg9
S'B733'
p1865
sg11
S'Jet2'
p1866
sba(iflightmod
Flight
p1867
(dp1868
g3
S'Paris'
p1869
sg5
I1383505500
sg6
S'U24295'
p1870
sg8
I1383499500
sg9
S'A320'
p1871
sg11
S'EasyJet'
p1872
sba(iflightmod
Flight
p1873
(dp1874
g3
S'Nantes'
p1875
sg5
I1383505800
sg6
S'TO3972'
p1876
sg8
I1383498900
sg9
S'B738'
p1877
sg11
S'Transavia France'
p1878
sba(iflightmod
Flight
p1879
(dp1880
g3
S'Berlin'
p1881
sg5
I1383506400
sg6
S'U24659'
p1882
sg8
I1383500100
sg9
S'A320'
p1883
sg11
S'EasyJet'
p1884
sba(iflightmod
Flight
p1885
(dp1886
g3
S'Olbia'
p1887
sg5
I1383506700
sg6
S'V71215'
p1888
sg8
I1383502200
sg9
S'B717'
p1889
sg11
S'Volotea'
p1890
sba(iflightmod
Flight
p1891
(dp1892
g3
S'Paris'
p1893
sg5
I1383507000
sg6
S'U23795'
p1894
sg8
I1383501000
sg9
S'A319'
p1895
sg11
S'EasyJet'
p1896
sba(iflightmod
Flight
p1897
(dp1898
g3
S'Lisbon'
p1899
sg5
I1383507300
sg6
S'U27681'
p1900
sg8
I1383496800
sg9
S'A319'
p1901
sg11
S'EasyJet'
p1902
sba(iflightmod
Flight
p1903
(dp1904
g3
S'London'
p1905
sg5
I1383508500
sg6
S'U25269'
p1906
sg8
I1383501000
sg9
S'A319'
p1907
sg11
S'EasyJet'
p1908
sba(iflightmod
Flight
p1909
(dp1910
g3
S'Rome'
p1911
sg5
I1383510300
sg6
S'AZ1483'
p1912
sg8
I1383506400
sg9
S'A320'
p1913
sg11
S'Alitalia'
p1914
sba(iflightmod
Flight
p1915
(dp1916
g3
S'Vienna'
p1917
sg5
I1383511500
sg6
S'OS527'
p1918
sg8
I1383507300
sg9
S'DH4'
p1919
sg11
S'Austrian Airlines'
p1920
sba(iflightmod
Flight
p1921
(dp1922
g3
S'Moscow'
p1923
sg5
I1383512400
sg6
S'SU2422'
p1924
sg8
I1383499500
sg9
S'A320'
p1925
sg11
S'Aeroflot'
p1926
sba(iflightmod
Flight
p1927
(dp1928
g3
S'Paris'
p1929
sg5
I1383513000
sg6
S'AF1326'
p1930
sg8
I1383507000
sg9
S'A320'
p1931
sg11
S'Air France'
p1932
sba(iflightmod
Flight
p1933
(dp1934
g3
S'Amsterdam'
p1935
sg5
I1383513600
sg6
S'KL1659'
p1936
sg8
I1383507300
sg9
S'B737'
p1937
sg11
S'KLM'
p1938
sba(iflightmod
Flight
p1939
(dp1940
g3
S'Rome'
p1941
sg5
I1383513900
sg6
S'AZ1473'
p1942
sg8
I1383510000
sg9
S'32S'
p1943
sg11
S'Alitalia'
p1944
sba(iflightmod
Flight
p1945
(dp1946
g3
S'Munich'
p1947
sg5
I1383513900
sg6
S'EN8206'
p1948
sg8
I1383510300
sg9
S'E95'
p1949
sg11
S'Air Dolomiti'
p1950
sba(iflightmod
Flight
p1951
(dp1952
g3
S'Brussels'
p1953
sg5
I1383514500
sg6
S'SN3207'
p1954
sg8
I1383508200
sg9
S'AR1'
p1955
sg11
S'Brussels Airlines'
p1956
sba(iflightmod
Flight
p1957
(dp1958
g3
S'Bari'
p1959
sg5
I1383516300
sg6
S'V71235'
p1960
sg8
I1383511500
sg9
S'B717'
p1961
sg11
S'Volotea'
p1962
sba(iflightmod
Flight
p1963
(dp1964
g3
S'Frankfurt'
p1965
sg5
I1383516900
sg6
S'LH332'
p1966
sg8
I1383512100
sg9
S'A321'
p1967
sg11
S'Lufthansa'
p1968
sba(iflightmod
Flight
p1969
(dp1970
g3
S'Palermo'
p1971
sg5
I1383516900
sg6
S'V71219'
p1972
sg8
I1383511200
sg9
S'B717'
p1973
sg11
S'Volotea'
p1974
sba(iflightmod
Flight
p1975
(dp1976
g3
S'Catania'
p1977
sg5
I1383517500
sg6
S'AP872'
p1978
sg8
I1383511500
sg9
S'A320'
p1979
sg11
S'Air One'
p1980
sba(iflightmod
Flight
p1981
(dp1982
g3
S'Catania'
p1983
sg5
I1383519300
sg6
S'V71265'
p1984
sg8
I1383513300
sg9
S'B717'
p1985
sg11
S'Volotea'
p1986
sba(iflightmod
Flight
p1987
(dp1988
g3
S'Tirana'
p1989
sg5
I1383546300
sg6
S'LZ675'
p1990
sg8
I1383541200
sg9
S'A319'
p1991
sg11
S'Belle Air'
p1992
sba(iflightmod
Flight
p1993
(dp1994
g3
S'Pristina'
p1995
sg5
I1383547200
sg6
S'L9526'
p1996
sg8
I1383541200
sg9
S'A319'
p1997
sg11
S'Belle Air Europe'
p1998
sba(iflightmod
Flight
p1999
(dp2000
g3
S'Munich'
p2001
sg5
I1383548700
sg6
S'EN8200'
p2002
sg8
I1383545100
sg9
S'E95'
p2003
sg11
S'Air Dolomiti'
p2004
sba(iflightmod
Flight
p2005
(dp2006
g3
S'Paris'
p2007
sg5
I1383549300
sg6
S'TO3342'
p2008
sg8
I1383543000
sg9
S'B738'
p2009
sg11
S'Transavia France'
p2010
sba(iflightmod
Flight
p2011
(dp2012
g3
S'Zurich'
p2013
sg5
I1383550800
sg6
S'LX1660'
p2014
sg8
I1383546600
sg9
S'AR1'
p2015
sg11
S'Swiss'
p2016
sba(iflightmod
Flight
p2017
(dp2018
g3
S'Paris'
p2019
sg5
I1383552000
sg6
S'AF1126'
p2020
sg8
I1383546000
sg9
S'A319'
p2021
sg11
S'Air France'
p2022
sba(iflightmod
Flight
p2023
(dp2024
g3
S'Paris'
p2025
sg5
I1383552000
sg6
S'U24291'
p2026
sg8
I1383546000
sg9
S'A320'
p2027
sg11
S'EasyJet'
p2028
sba(iflightmod
Flight
p2029
(dp2030
g3
S'Philadelphia'
p2031
sg5
I1383552900
sg6
S'US714'
p2032
sg8
I1383522300
sg9
S'B762'
p2033
sg11
S'US Airways'
p2034
sba(iflightmod
Flight
p2035
(dp2036
g3
S'Rome'
p2037
sg5
I1383553500
sg6
S'AZ1471'
p2038
sg8
I1383549600
sg9
S'E75'
p2039
sg11
S'Alitalia'
p2040
sba(iflightmod
Flight
p2041
(dp2042
g3
S'Istanbul'
p2043
sg5
I1383553500
sg6
S'TK1867'
p2044
sg8
I1383544500
sg9
S'A321'
p2045
sg11
S'Turkish Airlines'
p2046
sba(iflightmod
Flight
p2047
(dp2048
g3
S'Vienna'
p2049
sg5
I1383511500
sg6
S'OS527'
p2050
sg8
I1383507300
sg9
S'DH8D'
p2051
sg11
S'Austrian Airlines'
p2052
sba(iflightmod
Flight
p2053
(dp2054
g3
S'Brussels'
p2055
sg5
I1383514500
sg6
S'SN3207'
p2056
sg8
I1383508200
sg9
S'RJ1H'
p2057
sg11
S'Brussels Airlines'
p2058
sba(iflightmod
Flight
p2059
(dp2060
g3
S'Naples'
p2061
sg5
I1383555300
sg6
S'U2991'
p2062
sg8
I1383550800
sg9
S'A319'
p2063
sg11
S'EasyJet'
p2064
sba(iflightmod
Flight
p2065
(dp2066
g3
S'Southend'
p2067
sg5
I1383555600
sg6
S'U27397'
p2068
sg8
I1383548400
sg9
S'A319'
p2069
sg11
S'EasyJet'
p2070
sba(iflightmod
Flight
p2071
(dp2072
g3
S'Munich'
p2073
sg5
I1383513900
sg6
S'EN8206'
p2074
sg8
I1383510300
sg9
S'E190'
p2075
sg11
S'Air Dolomiti'
p2076
sba(iflightmod
Flight
p2077
(dp2078
g3
S'Rome'
p2079
sg5
I1383513900
sg6
S'AZ1473'
p2080
sg8
I1383510000
sg9
S'A320'
p2081
sg11
S'Alitalia'
p2082
sba(iflightmod
Flight
p2083
(dp2084
g3
S'Tunis'
p2085
sg5
I1383556200
sg6
S'TU472'
p2086
sg8
I1383550200
sg9
S'32A'
p2087
sg11
S'Tunisair'
p2088
sba(iflightmod
Flight
p2089
(dp2090
g3
S'Palermo'
p2091
sg5
I1383516900
sg6
S'V71219'
p2092
sg8
I1383511200
sg9
S'B712'
p2093
sg11
S'Volotea'
p2094
sba(iflightmod
Flight
p2095
(dp2096
g3
S'Frankfurt'
p2097
sg5
I1383556500
sg6
S'LH324'
p2098
sg8
I1383551700
sg9
S'32A'
p2099
sg11
S'Lufthansa'
p2100
sba(iflightmod
Flight
p2101
(dp2102
g3
S'Lyon'
p2103
sg5
I1383556500
sg6
S'A54522'
p2104
sg8
I1383551700
sg9
S'CR7'
p2105
sg11
S'HOP!'
p2106
sba(iflightmod
Flight
p2107
(dp2108
g3
S'Vienna'
p2109
sg5
I1383556800
sg6
S'OS521'
p2110
sg8
I1383552600
sg9
S'DH4'
p2111
sg11
S'Austrian Airlines'
p2112
sba(iflightmod
Flight
p2113
(dp2114
g3
S'Bari'
p2115
sg5
I1383516300
sg6
S'V71235'
p2116
sg8
I1383511500
sg9
S'B712'
p2117
sg11
S'Volotea'
p2118
sba(iflightmod
Flight
p2119
(dp2120
g3
S'Catania'
p2121
sg5
I1383557700
sg6
S'AP870'
p2122
sg8
I1383551700
sg9
S'A320'
p2123
sg11
S'Air One'
p2124
sba(iflightmod
Flight
p2125
(dp2126
g3
S'Leeds'
p2127
sg5
I1383559200
sg6
S'LS343'
p2128
sg8
I1383550200
sg9
S'B733'
p2129
sg11
S'Jet2'
p2130
sba(iflightmod
Flight
p2131
(dp2132
g3
S'Manchester'
p2133
sg5
I1383559200
sg6
S'LS801'
p2134
sg8
I1383550200
sg9
S'B733'
p2135
sg11
S'Jet2'
p2136
sba(iflightmod
Flight
p2137
(dp2138
g3
S'Rome'
p2139
sg5
I1383560100
sg6
S'AZ1463'
p2140
sg8
I1383556200
sg9
S'A320'
p2141
sg11
S'Alitalia'
p2142
sba(iflightmod
Flight
p2143
(dp2144
g3
S'Catania'
p2145
sg5
I1383519300
sg6
S'V71265'
p2146
sg8
I1383513300
sg9
S'B712'
p2147
sg11
S'Volotea'
p2148
sba(iflightmod
Flight
p2149
(dp2150
g3
S'Madrid'
p2151
sg5
I1383560400
sg6
S'IB3242'
p2152
sg8
I1383551400
sg9
S'A321'
p2153
sg11
S'Iberia'
p2154
sba(iflightmod
Flight
p2155
(dp2156
g3
S'Marseille'
p2157
sg5
I1383560700
sg6
S'AF4332'
p2158
sg8
I1383556200
sg9
S'A319'
p2159
sg11
S'Air France'
p2160
sba(iflightmod
Flight
p2161
(dp2162
g3
S'London'
p2163
sg5
I1383561000
sg6
S'BA2582'
p2164
sg8
I1383553500
sg9
S'B734'
p2165
sg11
S'British Airways'
p2166
sba(iflightmod
Flight
p2167
(dp2168
g3
S'Berlin'
p2169
sg5
I1383561600
sg6
S'U24651'
p2170
sg8
I1383555300
sg9
S'A319'
p2171
sg11
S'EasyJet'
p2172
sba(iflightmod
Flight
p2173
(dp2174
g3
S'Amsterdam'
p2175
sg5
I1383561900
sg6
S'KL1653'
p2176
sg8
I1383555300
sg9
S'B738'
p2177
sg11
S'KLM'
p2178
sba(iflightmod
Flight
p2179
(dp2180
g3
S'Brussels'
p2181
sg5
I1383561900
sg6
S'SN3201'
p2182
sg8
I1383555900
sg9
S'RJ1H'
p2183
sg11
S'Brussels Airlines'
p2184
sba(iflightmod
Flight
p2185
(dp2186
g3
S'London'
p2187
sg5
I1383561900
sg6
S'U25263'
p2188
sg8
I1383554400
sg9
S'A319'
p2189
sg11
S'EasyJet'
p2190
sba(iflightmod
Flight
p2191
(dp2192
g3
S'Frankfurt'
p2193
sg5
I1383562200
sg6
S'LH326'
p2194
sg8
I1383557400
sg9
S'A321'
p2195
sg11
S'Lufthansa'
p2196
sba(iflightmod
Flight
p2197
(dp2198
g3
S'London'
p2199
sg5
I1383562200
sg6
S'BA578'
p2200
sg8
I1383554700
sg9
S'A319'
p2201
sg11
S'British Airways'
p2202
sba(iflightmod
Flight
p2203
(dp2204
g3
S'Moscow'
p2205
sg5
I1383562200
sg6
S'SU2596'
p2206
sg8
I1383549900
sg9
S'A320'
p2207
sg11
S'Aeroflot'
p2208
sba(iflightmod
Flight
p2209
(dp2210
g3
S'Paris'
p2211
sg5
I1383562800
sg6
S'AF1426'
p2212
sg8
I1383556800
sg9
S'A318'
p2213
sg11
S'Air France'
p2214
sba(iflightmod
Flight
p2215
(dp2216
g3
S'Barcelona'
p2217
sg5
I1383564000
sg6
S'VY6400'
p2218
sg8
I1383557700
sg9
S'A320'
p2219
sg11
S'Vueling'
p2220
sba(iflightmod
Flight
p2221
(dp2222
g3
S'Geneva'
p2223
sg5
I1383564000
sg6
S'U21327'
p2224
sg8
I1383559500
sg9
S'A320'
p2225
sg11
S'EasyJet'
p2226
sba(iflightmod
Flight
p2227
(dp2228
g3
S'Munich'
p2229
sg5
I1383564600
sg6
S'EN8202'
p2230
sg8
I1383561000
sg9
S'E95'
p2231
sg11
S'Air Dolomiti'
p2232
sba(iflightmod
Flight
p2233
(dp2234
g3
S'Istanbul'
p2235
sg5
I1383567600
sg6
S'TK1871'
p2236
sg8
I1383558600
sg9
S'A319'
p2237
sg11
S'Turkish Airlines'
p2238
sba(iflightmod
Flight
p2239
(dp2240
g3
S'Rome'
p2241
sg5
I1383568500
sg6
S'AZ1465'
p2242
sg8
I1383564600
sg9
S'A319'
p2243
sg11
S'Alitalia'
p2244
sba(iflightmod
Flight
p2245
(dp2246
g3
S'Frankfurt'
p2247
sg5
I1383568500
sg6
S'LH328'
p2248
sg8
I1383563700
sg9
S'A320'
p2249
sg11
S'Lufthansa'
p2250
sba(iflightmod
Flight
p2251
(dp2252
g3
S'Doha'
p2253
sg5
I1383568800
sg6
S'QR129'
p2254
sg8
I1383545100
sg9
S'A320'
p2255
sg11
S'Qatar Airways'
p2256
sba(iflightmod
Flight
p2257
(dp2258
g3
S'Dubai'
p2259
sg5
I1383569100
sg6
S'EK135'
p2260
sg8
I1383545100
sg9
S'B77W'
p2261
sg11
S'Emirates'
p2262
sba(iflightmod
Flight
p2263
(dp2264
g3
S'Zurich'
p2265
sg5
I1383570000
sg6
S'LX1662'
p2266
sg8
I1383566100
sg9
S'A319'
p2267
sg11
S'Swiss'
p2268
sba(iflightmod
Flight
p2269
(dp2270
g3
S'Paris'
p2271
sg5
I1383570300
sg6
S'U23793'
p2272
sg8
I1383564300
sg9
S'A319'
p2273
sg11
S'EasyJet'
p2274
sba(iflightmod
Flight
p2275
(dp2276
g3
S'Reggio Calabria'
p2277
sg5
I1383570600
sg6
S'V71249'
p2278
sg8
I1383564900
sg9
S'B717'
p2279
sg11
S'Volotea'
p2280
sba(iflightmod
Flight
p2281
(dp2282
g3
S'Berlin'
p2283
sg5
I1383570900
sg6
S'AB8990'
p2284
sg8
I1383565200
sg9
S'73G'
p2285
sg11
S'Air Berlin'
p2286
sba(iflightmod
Flight
p2287
(dp2288
g3
S'London'
p2289
sg5
I1383571200
sg6
S'BA8479'
p2290
sg8
I1383563700
sg9
S'E190'
p2291
sg11
S'British Airways'
p2292
sba(iflightmod
Flight
p2293
(dp2294
g3
S'Palermo'
p2295
sg5
I1383571800
sg6
S'V71219'
p2296
sg8
I1383566100
sg9
S'B717'
p2297
sg11
S'Volotea'
p2298
sba(iflightmod
Flight
p2299
(dp2300
g3
S'Prague'
p2301
sg5
I1383572100
sg6
S'AP753'
p2302
sg8
I1383567000
sg9
S'A320'
p2303
sg11
S'Air One'
p2304
sba(iflightmod
Flight
p2305
(dp2306
g3
S'Paris'
p2307
sg5
I1383572400
sg6
S'AF1726'
p2308
sg8
I1383566400
sg9
S'A321'
p2309
sg11
S'Air France'
p2310
sba(iflightmod
Flight
p2311
(dp2312
g3
S'Catania'
p2313
sg5
I1383574200
sg6
S'V71263'
p2314
sg8
I1383567900
sg9
S'B717'
p2315
sg11
S'Volotea'
p2316
sba(iflightmod
Flight
p2317
(dp2318
g3
S'Naples'
p2319
sg5
I1383574200
sg6
S'U2995'
p2320
sg8
I1383569700
sg9
S'A319'
p2321
sg11
S'EasyJet'
p2322
sba(iflightmod
Flight
p2323
(dp2324
g3
S'London'
p2325
sg5
I1383575100
sg6
S'BA2584'
p2326
sg8
I1383567900
sg9
S'A319'
p2327
sg11
S'British Airways'
p2328
sba(iflightmod
Flight
p2329
(dp2330
g3
S'Rome'
p2331
sg5
I1383576000
sg6
S'AZ1475'
p2332
sg8
I1383572100
sg9
S'A320'
p2333
sg11
S'Alitalia'
p2334
sba(iflightmod
Flight
p2335
(dp2336
g3
S'Casablanca'
p2337
sg5
I1383577500
sg6
S'3O2475'
p2338
sg8
I1383562800
sg9
S'A320'
p2339
sg11
S'Air Arabia Maroc'
p2340
sba(iflightmod
Flight
p2341
(dp2342
g3
S'Lisbon'
p2343
sg5
I1383579000
sg6
S'TP876'
p2344
sg8
I1383568200
sg9
S'A319'
p2345
sg11
S'TAP Portugal'
p2346
sba(iflightmod
Flight
p2347
(dp2348
g3
S'Munich'
p2349
sg5
I1383579300
sg6
S'EN8204'
p2350
sg8
I1383575700
sg9
S'E95'
p2351
sg11
S'Air Dolomiti'
p2352
sba(iflightmod
Flight
p2353
(dp2354
g3
S'Cologne'
p2355
sg5
I1383579900
sg6
S'4U814'
p2356
sg8
I1383574500
sg9
S'A319'
p2357
sg11
S'Germanwings'
p2358
sba(iflightmod
Flight
p2359
(dp2360
g3
S'Lyon'
p2361
sg5
I1383580200
sg6
S'A54526'
p2362
sg8
I1383575400
sg9
S'E145'
p2363
sg11
S'HOP!'
p2364
sba(iflightmod
Flight
p2365
(dp2366
g3
S'Amsterdam'
p2367
sg5
I1383580500
sg6
S'KL1655'
p2368
sg8
I1383574200
sg9
S'B738'
p2369
sg11
S'KLM'
p2370
sba(iflightmod
Flight
p2371
(dp2372
g3
S'Munich'
p2373
sg5
I1383579300
sg6
S'EN8204'
p2374
sg8
I1383575700
sg9
S'E190'
p2375
sg11
S'Air Dolomiti'
p2376
sba(iflightmod
Flight
p2377
(dp2378
g3
S'Brussels'
p2379
sg5
I1383582300
sg6
S'SN3205'
p2380
sg8
I1383576300
sg9
S'AR1'
p2381
sg11
S'Brussels Airlines'
p2382
sba(iflightmod
Flight
p2383
(dp2384
g3
S'Brussels'
p2385
sg5
I1383582300
sg6
S'SN3205'
p2386
sg8
I1383576300
sg9
S'RJ1H'
p2387
sg11
S'Brussels Airlines'
p2388
sba(iflightmod
Flight
p2389
(dp2390
g3
S'London'
p2391
sg5
I1383582600
sg6
S'U25267'
p2392
sg8
I1383575100
sg9
S'A319'
p2393
sg11
S'EasyJet'
p2394
sba(iflightmod
Flight
p2395
(dp2396
g3
S'Paris'
p2397
sg5
I1383582900
sg6
S'AF1226'
p2398
sg8
I1383576900
sg9
S'A318'
p2399
sg11
S'Air France'
p2400
sba(iflightmod
Flight
p2401
(dp2402
g3
S'Istanbul'
p2403
sg5
I1383584400
sg6
S'TK1869'
p2404
sg8
I1383575100
sg9
S'B738'
p2405
sg11
S'Turkish Airlines'
p2406
sba(iflightmod
Flight
p2407
(dp2408
g3
S'Frankfurt'
p2409
sg5
I1383585000
sg6
S'LH330'
p2410
sg8
I1383580200
sg9
S'32A'
p2411
sg11
S'Lufthansa'
p2412
sba(iflightmod
Flight
p2413
(dp2414
g3
S'Madrid'
p2415
sg5
I1383585300
sg6
S'IB3244'
p2416
sg8
I1383576600
sg9
S'A320'
p2417
sg11
S'Iberia'
p2418
sba(iflightmod
Flight
p2419
(dp2420
g3
S'null'
p2421
sg5
I1383586200
sg6
S'V71243'
p2422
sg8
I1383580200
sg9
S'B717'
p2423
sg11
S'Volotea'
p2424
sba(iflightmod
Flight
p2425
(dp2426
g3
S'Vienna'
p2427
sg5
I1383586200
sg6
S'OS529'
p2428
sg8
I1383582000
sg9
S'DH4'
p2429
sg11
S'Austrian Airlines'
p2430
sba(iflightmod
Flight
p2431
(dp2432
g3
S'null'
p2433
sg5
I1383586200
sg6
S'V71243'
p2434
sg8
I1383580200
sg9
S'B712'
p2435
sg11
S'Volotea'
p2436
sba(iflightmod
Flight
p2437
(dp2438
g3
S'London'
p2439
sg5
I1383587400
sg6
S'BA2586'
p2440
sg8
I1383580500
sg9
S'B734'
p2441
sg11
S'British Airways'
p2442
sba(iflightmod
Flight
p2443
(dp2444
g3
S'Naples'
p2445
sg5
I1383587400
sg6
S'U2997'
p2446
sg8
I1383582900
sg9
S'A319'
p2447
sg11
S'EasyJet'
p2448
sba(iflightmod
Flight
p2449
(dp2450
g3
S'Zurich'
p2451
sg5
I1383587400
sg6
S'LX1664'
p2452
sg8
I1383583200
sg9
S'AR1'
p2453
sg11
S'Swiss'
p2454
sba(iflightmod
Flight
p2455
(dp2456
g3
S'Zurich'
p2457
sg5
I1383587400
sg6
S'LX1664'
p2458
sg8
I1383583200
sg9
S'RJ1H'
p2459
sg11
S'Swiss'
p2460
sba(iflightmod
Flight
p2461
(dp2462
g3
S'Palermo'
p2463
sg5
I1383587700
sg6
S'AP735'
p2464
sg8
I1383582300
sg9
S'A320'
p2465
sg11
S'Air One'
p2466
sba(iflightmod
Flight
p2467
(dp2468
g3
S'Rome'
p2469
sg5
I1383588300
sg6
S'AZ1467'
p2470
sg8
I1383584400
sg9
S'E75'
p2471
sg11
S'Alitalia'
p2472
sba(iflightmod
Flight
p2473
(dp2474
g3
S'Rome'
p2475
sg5
I1383588300
sg6
S'AZ1467'
p2476
sg8
I1383584400
sg9
S'E170'
p2477
sg11
S'Alitalia'
p2478
sba(iflightmod
Flight
p2479
(dp2480
g3
S'Nice'
p2481
sg5
I1383588600
sg6
S'U21651'
p2482
sg8
I1383583800
sg9
S'A319'
p2483
sg11
S'EasyJet'
p2484
sba(iflightmod
Flight
p2485
(dp2486
g3
S'Paris'
p2487
sg5
I1383589200
sg6
S'U24295'
p2488
sg8
I1383583200
sg9
S'A320'
p2489
sg11
S'EasyJet'
p2490
sba(iflightmod
Flight
p2491
(dp2492
g3
S'Barcelona'
p2493
sg5
I1383590700
sg6
S'VY6402'
p2494
sg8
I1383584400
sg9
S'A320'
p2495
sg11
S'Vueling'
p2496
sba(iflightmod
Flight
p2497
(dp2498
g3
S'Paris'
p2499
sg5
I1383593400
sg6
S'U23795'
p2500
sg8
I1383587400
sg9
S'A319'
p2501
sg11
S'EasyJet'
p2502
sba(iflightmod
Flight
p2503
(dp2504
g3
S'Rome'
p2505
sg5
I1383596700
sg6
S'AZ1483'
p2506
sg8
I1383592800
sg9
S'A320'
p2507
sg11
S'Alitalia'
p2508
sba(iflightmod
Flight
p2509
(dp2510
g3
S'Vienna'
p2511
sg5
I1383597900
sg6
S'OS527'
p2512
sg8
I1383593700
sg9
S'DH4'
p2513
sg11
S'Austrian Airlines'
p2514
sba(iflightmod
Flight
p2515
(dp2516
g3
S'Vienna'
p2517
sg5
I1383597900
sg6
S'OS527'
p2518
sg8
I1383593700
sg9
S'DH8D'
p2519
sg11
S'Austrian Airlines'
p2520
sba(iflightmod
Flight
p2521
(dp2522
g3
S'Moscow'
p2523
sg5
I1383598800
sg6
S'SU2422'
p2524
sg8
I1383586500
sg9
S'A320'
p2525
sg11
S'Aeroflot'
p2526
sba(iflightmod
Flight
p2527
(dp2528
g3
S'Paris'
p2529
sg5
I1383599400
sg6
S'AF1326'
p2530
sg8
I1383593400
sg9
S'A318'
p2531
sg11
S'Air France'
p2532
sba(iflightmod
Flight
p2533
(dp2534
g3
S'Amsterdam'
p2535
sg5
I1383600000
sg6
S'KL1659'
p2536
sg8
I1383593700
sg9
S'B738'
p2537
sg11
S'KLM'
p2538
sba(iflightmod
Flight
p2539
(dp2540
g3
S'Rome'
p2541
sg5
I1383600300
sg6
S'AZ1473'
p2542
sg8
I1383596400
sg9
S'32S'
p2543
sg11
S'Alitalia'
p2544
sba(iflightmod
Flight
p2545
(dp2546
g3
S'Munich'
p2547
sg5
I1383600300
sg6
S'EN8206'
p2548
sg8
I1383596700
sg9
S'E95'
p2549
sg11
S'Air Dolomiti'
p2550
sba(iflightmod
Flight
p2551
(dp2552
g3
S'Brussels'
p2553
sg5
I1383600900
sg6
S'SN3207'
p2554
sg8
I1383594600
sg9
S'AR1'
p2555
sg11
S'Brussels Airlines'
p2556
sba(iflightmod
Flight
p2557
(dp2558
g3
S'Bari'
p2559
sg5
I1383601200
sg6
S'V71235'
p2560
sg8
I1383596400
sg9
S'B717'
p2561
sg11
S'Volotea'
p2562
sba(iflightmod
Flight
p2563
(dp2564
g3
S'Frankfurt'
p2565
sg5
I1383603000
sg6
S'LH332'
p2566
sg8
I1383598200
sg9
S'A320'
p2567
sg11
S'Lufthansa'
p2568
sba(iflightmod
Flight
p2569
(dp2570
g3
S'Catania'
p2571
sg5
I1383603900
sg6
S'AP872'
p2572
sg8
I1383597900
sg9
S'A320'
p2573
sg11
S'Air One'
p2574
sba(iflightmod
Flight
p2575
(dp2576
g3
S'Catania'
p2577
sg5
I1383604500
sg6
S'V71265'
p2578
sg8
I1383598200
sg9
S'B717'
p2579
sg11
S'Volotea'
p2580
sba(iflightmod
Flight
p2581
(dp2582
g3
S'Bilbao'
p2583
sg5
I1383605700
sg6
S'V71345'
p2584
sg8
I1383597900
sg9
S'B717'
p2585
sg11
S'Volotea'
p2586
sba(iflightmod
Flight
p2587
(dp2588
g3
S'Rome'
p2589
sg5
I1383600300
sg6
S'AZ1473'
p2590
sg8
I1383596400
sg9
S'A320'
p2591
sg11
S'Alitalia'
p2592
sba(iflightmod
Flight
p2593
(dp2594
g3
S'Bari'
p2595
sg5
I1383601200
sg6
S'V71235'
p2596
sg8
I1383596400
sg9
S'B712'
p2597
sg11
S'Volotea'
p2598
sba(iflightmod
Flight
p2599
(dp2600
g3
S'Munich'
p2601
sg5
I1383600300
sg6
S'EN8206'
p2602
sg8
I1383596700
sg9
S'E190'
p2603
sg11
S'Air Dolomiti'
p2604
sba(iflightmod
Flight
p2605
(dp2606
g3
S'Bilbao'
p2607
sg5
I1383605700
sg6
S'V71345'
p2608
sg8
I1383597900
sg9
S'B712'
p2609
sg11
S'Volotea'
p2610
sba(iflightmod
Flight
p2611
(dp2612
g3
S'Munich'
p2613
sg5
I1383635100
sg6
S'EN8200'
p2614
sg8
I1383631500
sg9
S'E95'
p2615
sg11
S'Air Dolomiti'
p2616
sba(iflightmod
Flight
p2617
(dp2618
g3
S'Zurich'
p2619
sg5
I1383637200
sg6
S'LX1660'
p2620
sg8
I1383633000
sg9
S'AR1'
p2621
sg11
S'Swiss'
p2622
sba(iflightmod
Flight
p2623
(dp2624
g3
S'Zurich'
p2625
sg5
I1383637200
sg6
S'LX1660'
p2626
sg8
I1383633000
sg9
S'RJ1H'
p2627
sg11
S'Swiss'
p2628
sba(iflightmod
Flight
p2629
(dp2630
g3
S'Paris'
p2631
sg5
I1383638400
sg6
S'AF1126'
p2632
sg8
I1383632400
sg9
S'A319'
p2633
sg11
S'Air France'
p2634
sba(iflightmod
Flight
p2635
(dp2636
g3
S'Paris'
p2637
sg5
I1383638400
sg6
S'U24291'
p2638
sg8
I1383632400
sg9
S'A320'
p2639
sg11
S'EasyJet'
p2640
sba(iflightmod
Flight
p2641
(dp2642
g3
S'Philadelphia'
p2643
sg5
I1383639300
sg6
S'US714'
p2644
sg8
I1383608700
sg9
S'B762'
p2645
sg11
S'US Airways'
p2646
sba(iflightmod
Flight
p2647
(dp2648
g3
S'Rome'
p2649
sg5
I1383639900
sg6
S'AZ1471'
p2650
sg8
I1383636000
sg9
S'E190'
p2651
sg11
S'Alitalia'
p2652
sba(iflightmod
Flight
p2653
(dp2654
g3
S'Istanbul'
p2655
sg5
I1383639900
sg6
S'TK1867'
p2656
sg8
I1383630900
sg9
S'A320'
p2657
sg11
S'Turkish Airlines'
p2658
sba(iflightmod
Flight
p2659
(dp2660
g3
S'Naples'
p2661
sg5
I1383641700
sg6
S'U2991'
p2662
sg8
I1383637200
sg9
S'A319'
p2663
sg11
S'EasyJet'
p2664
sba(iflightmod
Flight
p2665
(dp2666
g3
S'Lyon'
p2667
sg5
I1383642900
sg6
S'A54522'
p2668
sg8
I1383638100
sg9
S'CR7'
p2669
sg11
S'HOP!'
p2670
sba(iflightmod
Flight
p2671
(dp2672
g3
S'Vienna'
p2673
sg5
I1383643200
sg6
S'OS521'
p2674
sg8
I1383639000
sg9
S'DH4'
p2675
sg11
S'Austrian Airlines'
p2676
sba(iflightmod
Flight
p2677
(dp2678
g3
S'Frankfurt'
p2679
sg5
I1383643500
sg6
S'LH324'
p2680
sg8
I1383638700
sg9
S'A320'
p2681
sg11
S'Lufthansa'
p2682
sba(iflightmod
Flight
p2683
(dp2684
g3
S'Lyon'
p2685
sg5
I1383642900
sg6
S'A54522'
p2686
sg8
I1383638100
sg9
S'CRJ7'
p2687
sg11
S'HOP!'
p2688
sba(iflightmod
Flight
p2689
(dp2690
g3
S'Vienna'
p2691
sg5
I1383643200
sg6
S'OS521'
p2692
sg8
I1383639000
sg9
S'DH8D'
p2693
sg11
S'Austrian Airlines'
p2694
sba(iflightmod
Flight
p2695
(dp2696
g3
S'London'
p2697
sg5
I1383645000
sg6
S'BA2582'
p2698
sg8
I1383637500
sg9
S'B734'
p2699
sg11
S'British Airways'
p2700
sba(iflightmod
Flight
p2701
(dp2702
g3
S'Lyon'
p2703
sg5
I1383645300
sg6
S'U24465'
p2704
sg8
I1383640800
sg9
S'A319'
p2705
sg11
S'EasyJet'
p2706
sba(iflightmod
Flight
p2707
(dp2708
g3
S'Dublin'
p2709
sg5
I1383645600
sg6
S'EI422'
p2710
sg8
I1383636000
sg9
S'A320'
p2711
sg11
S'Aer Lingus'
p2712
sba(iflightmod
Flight
p2713
(dp2714
g3
S'Catania'
p2715
sg5
I1383646200
sg6
S'AP870'
p2716
sg8
I1383640200
sg9
S'A320'
p2717
sg11
S'Air One'
p2718
sba(iflightmod
Flight
p2719
(dp2720
g3
S'Rome'
p2721
sg5
I1383646500
sg6
S'AZ1463'
p2722
sg8
I1383642600
sg9
S'A320'
p2723
sg11
S'Alitalia'
p2724
sba(iflightmod
Flight
p2725
(dp2726
g3
S'Madrid'
p2727
sg5
I1383646800
sg6
S'IB3242'
p2728
sg8
I1383637800
sg9
S'A321'
p2729
sg11
S'Iberia'
p2730
sba(iflightmod
Flight
p2731
(dp2732
g3
S'Toulouse'
p2733
sg5
I1383647700
sg6
S'AF4374'
p2734
sg8
I1383641700
sg9
S'A319'
p2735
sg11
S'Air France'
p2736
sba(iflightmod
Flight
p2737
(dp2738
g3
S'Berlin'
p2739
sg5
I1383648000
sg6
S'U24651'
p2740
sg8
I1383641700
sg9
S'A319'
p2741
sg11
S'EasyJet'
p2742
sba(iflightmod
Flight
p2743
(dp2744
g3
S'Amsterdam'
p2745
sg5
I1383648300
sg6
S'KL1653'
p2746
sg8
I1383641700
sg9
S'E190'
p2747
sg11
S'KLM'
p2748
sba(iflightmod
Flight
p2749
(dp2750
g3
S'Brussels'
p2751
sg5
I1383648300
sg6
S'SN3201'
p2752
sg8
I1383642300
sg9
S'AR1'
p2753
sg11
S'Brussels Airlines'
p2754
sba(iflightmod
Flight
p2755
(dp2756
g3
S'Lisbon'
p2757
sg5
I1383648300
sg6
S'TP874'
p2758
sg8
I1383637800
sg9
S'A320'
p2759
sg11
S'TAP Portugal'
p2760
sba(iflightmod
Flight
p2761
(dp2762
g3
S'Frankfurt'
p2763
sg5
I1383648600
sg6
S'LH326'
p2764
sg8
I1383643800
sg9
S'A321'
p2765
sg11
S'Lufthansa'
p2766
sba(iflightmod
Flight
p2767
(dp2768
g3
S'London'
p2769
sg5
I1383648600
sg6
S'BA578'
p2770
sg8
I1383641100
sg9
S'A319'
p2771
sg11
S'British Airways'
p2772
sba(iflightmod
Flight
p2773
(dp2774
g3
S'Moscow'
p2775
sg5
I1383648600
sg6
S'SU2596'
p2776
sg8
I1383636300
sg9
S'A320'
p2777
sg11
S'Aeroflot'
p2778
sba(iflightmod
Flight
p2779
(dp2780
g3
S'Paris'
p2781
sg5
I1383649200
sg6
S'AF1426'
p2782
sg8
I1383643200
sg9
S'A318'
p2783
sg11
S'Air France'
p2784
sba(iflightmod
Flight
p2785
(dp2786
g3
S'Brussels'
p2787
sg5
I1383648300
sg6
S'SN3201'
p2788
sg8
I1383642300
sg9
S'RJ1H'
p2789
sg11
S'Brussels Airlines'
p2790
sba(iflightmod
Flight
p2791
(dp2792
g3
S'Stuttgart'
p2793
sg5
I1383649800
sg6
S'AB8984'
p2794
sg8
I1383645600
sg9
S'DH4'
p2795
sg11
S'Air Berlin'
p2796
sba(iflightmod
Flight
p2797
(dp2798
g3
S'Barcelona'
p2799
sg5
I1383650400
sg6
S'VY6400'
p2800
sg8
I1383644100
sg9
S'A320'
p2801
sg11
S'Vueling'
p2802
sba(iflightmod
Flight
p2803
(dp2804
g3
S'Munich'
p2805
sg5
I1383651000
sg6
S'EN8202'
p2806
sg8
I1383647400
sg9
S'E95'
p2807
sg11
S'Air Dolomiti'
p2808
sba(iflightmod
Flight
p2809
(dp2810
g3
S'Stuttgart'
p2811
sg5
I1383649800
sg6
S'AB8984'
p2812
sg8
I1383645600
sg9
S'DH8D'
p2813
sg11
S'Air Berlin'
p2814
sba(iflightmod
Flight
p2815
(dp2816
g3
S'Tel Aviv'
p2817
sg5
I1383651600
sg6
S'LY289'
p2818
sg8
I1383636600
sg9
S'B738'
p2819
sg11
S'El Al'
p2820
sba(iflightmod
Flight
p2821
(dp2822
g3
S'Istanbul'
p2823
sg5
I1383654000
sg6
S'TK1871'
p2824
sg8
I1383645000
sg9
S'B738'
p2825
sg11
S'Turkish Airlines'
p2826
sba(iflightmod
Flight
p2827
(dp2828
g3
S'Frankfurt'
p2829
sg5
I1383654900
sg6
S'LH328'
p2830
sg8
I1383650100
sg9
S'32A'
p2831
sg11
S'Lufthansa'
p2832
sba(iflightmod
Flight
p2833
(dp2834
g3
S'Doha'
p2835
sg5
I1383655200
sg6
S'QR129'
p2836
sg8
I1383631500
sg9
S'A320'
p2837
sg11
S'Qatar Airways'
p2838
sba(iflightmod
Flight
p2839
(dp2840
g3
S'Dubai'
p2841
sg5
I1383655500
sg6
S'EK135'
p2842
sg8
I1383631500
sg9
S'B77W'
p2843
sg11
S'Emirates'
p2844
sba(iflightmod
Flight
p2845
(dp2846
g3
S'Zurich'
p2847
sg5
I1383656400
sg6
S'LX1662'
p2848
sg8
I1383652500
sg9
S'A320'
p2849
sg11
S'Swiss'
p2850
sba(iflightmod
Flight
p2851
(dp2852
g3
S'Frankfurt'
p2853
sg5
I1383654900
sg6
S'LH328'
p2854
sg8
I1383650100
sg9
S'A320'
p2855
sg11
S'Lufthansa'
p2856
sba(iflightmod
Flight
p2857
(dp2858
g3
S'Paris'
p2859
sg5
I1383656700
sg6
S'U23793'
p2860
sg8
I1383650700
sg9
S'A319'
p2861
sg11
S'EasyJet'
p2862
sba(iflightmod
Flight
p2863
(dp2864
g3
S'Paris'
p2865
sg5
I1383658800
sg6
S'AF1726'
p2866
sg8
I1383652800
sg9
S'A319'
p2867
sg11
S'Air France'
p2868
sba(iflightmod
Flight
p2869
(dp2870
g3
S'London'
p2871
sg5
I1383661500
sg6
S'BA2584'
p2872
sg8
I1383654300
sg9
S'A319'
p2873
sg11
S'British Airways'
p2874
sba(iflightmod
Flight
p2875
(dp2876
g3
S'Rome'
p2877
sg5
I1383662400
sg6
S'AZ1475'
p2878
sg8
I1383658500
sg9
S'A320'
p2879
sg11
S'Alitalia'
p2880
sba(iflightmod
Flight
p2881
(dp2882
g3
S'Manchester'
p2883
sg5
I1383662400
sg6
S'U21863'
p2884
sg8
I1383653400
sg9
S'A319'
p2885
sg11
S'EasyJet'
p2886
sba(iflightmod
Flight
p2887
(dp2888
g3
S'Casablanca'
p2889
sg5
I1383663900
sg6
S'3O2475'
p2890
sg8
I1383649200
sg9
S'A320'
p2891
sg11
S'Air Arabia Maroc'
p2892
sba(iflightmod
Flight
p2893
(dp2894
g3
S'Munich'
p2895
sg5
I1383665700
sg6
S'EN8204'
p2896
sg8
I1383662100
sg9
S'E95'
p2897
sg11
S'Air Dolomiti'
p2898
sba(iflightmod
Flight
p2899
(dp2900
g3
S'Lyon'
p2901
sg5
I1383666600
sg6
S'A54526'
p2902
sg8
I1383661800
sg9
S'E145'
p2903
sg11
S'HOP!'
p2904
sba(iflightmod
Flight
p2905
(dp2906
g3
S'Amsterdam'
p2907
sg5
I1383666900
sg6
S'KL1655'
p2908
sg8
I1383660600
sg9
S'B737'
p2909
sg11
S'KLM'
p2910
sba(iflightmod
Flight
p2911
(dp2912
g3
S'London'
p2913
sg5
I1383669000
sg6
S'U25267'
p2914
sg8
I1383661500
sg9
S'A319'
p2915
sg11
S'EasyJet'
p2916
sba(iflightmod
Flight
p2917
(dp2918
g3
S'Tirana'
p2919
sg5
I1383669000
sg6
S'LZ673'
p2920
sg8
I1383663600
sg9
S'A319'
p2921
sg11
S'Belle Air'
p2922
sba(iflightmod
Flight
p2923
(dp2924
g3
S'Paris'
p2925
sg5
I1383669300
sg6
S'AF1226'
p2926
sg8
I1383663300
sg9
S'A318'
p2927
sg11
S'Air France'
p2928
sba(iflightmod
Flight
p2929
(dp2930
g3
S'Istanbul'
p2931
sg5
I1383670800
sg6
S'TK1869'
p2932
sg8
I1383661500
sg9
S'A320'
p2933
sg11
S'Turkish Airlines'
p2934
sba(iflightmod
Flight
p2935
(dp2936
g3
S'Frankfurt'
p2937
sg5
I1383671400
sg6
S'LH330'
p2938
sg8
I1383666600
sg9
S'A320'
p2939
sg11
S'Lufthansa'
p2940
sba(iflightmod
Flight
p2941
(dp2942
g3
S'Vienna'
p2943
sg5
I1383672600
sg6
S'OS529'
p2944
sg8
I1383668400
sg9
S'DH4'
p2945
sg11
S'Austrian Airlines'
p2946
sba(iflightmod
Flight
p2947
(dp2948
g3
S'London'
p2949
sg5
I1383673800
sg6
S'BA2586'
p2950
sg8
I1383666900
sg9
S'B734'
p2951
sg11
S'British Airways'
p2952
sba(iflightmod
Flight
p2953
(dp2954
g3
S'Naples'
p2955
sg5
I1383673800
sg6
S'U2997'
p2956
sg8
I1383669300
sg9
S'A319'
p2957
sg11
S'EasyJet'
p2958
sba(iflightmod
Flight
p2959
(dp2960
g3
S'Zurich'
p2961
sg5
I1383673800
sg6
S'LX1664'
p2962
sg8
I1383669600
sg9
S'AR1'
p2963
sg11
S'Swiss'
p2964
sba(iflightmod
Flight
p2965
(dp2966
g3
S'Lamezia Terme'
p2967
sg5
I1383674100
sg6
S'AP729'
p2968
sg8
I1383668700
sg9
S'A320'
p2969
sg11
S'Air One'
p2970
sba(iflightmod
Flight
p2971
(dp2972
g3
S'Rome'
p2973
sg5
I1383674700
sg6
S'AZ1467'
p2974
sg8
I1383670800
sg9
S'E75'
p2975
sg11
S'Alitalia'
p2976
sba(iflightmod
Flight
p2977
(dp2978
g3
S'Madrid'
p2979
sg5
I1383675300
sg6
S'IB3246'
p2980
sg8
I1383666600
sg9
S'A321'
p2981
sg11
S'Iberia'
p2982
sba(iflightmod
Flight
p2983
(dp2984
g3
S'Paris'
p2985
sg5
I1383675600
sg6
S'U24295'
p2986
sg8
I1383669600
sg9
S'A320'
p2987
sg11
S'EasyJet'
p2988
sba(iflightmod
Flight
p2989
(dp2990
g3
S'Paris'
p2991
sg5
I1383677700
sg6
S'TO3342'
p2992
sg8
I1383671400
sg9
S'B738'
p2993
sg11
S'Transavia France'
p2994
sba(iflightmod
Flight
p2995
(dp2996
g3
S'Rome'
p2997
sg5
I1383678300
sg6
S'AZ1481'
p2998
sg8
I1383674400
sg9
S'32S'
p2999
sg11
S'Alitalia'
p3000
sba(iflightmod
Flight
p3001
(dp3002
g3
S'Munich'
p3003
sg5
I1383665700
sg6
S'EN8204'
p3004
sg8
I1383662100
sg9
S'E190'
p3005
sg11
S'Air Dolomiti'
p3006
sba(iflightmod
Flight
p3007
(dp3008
g3
S'Zurich'
p3009
sg5
I1383673800
sg6
S'LX1664'
p3010
sg8
I1383669600
sg9
S'A320'
p3011
sg11
S'Swiss'
p3012
sba(iflightmod
Flight
p3013
(dp3014
g3
S'Rome'
p3015
sg5
I1383674700
sg6
S'AZ1467'
p3016
sg8
I1383670800
sg9
S'E170'
p3017
sg11
S'Alitalia'
p3018
sba(iflightmod
Flight
p3019
(dp3020
g3
S'Rome'
p3021
sg5
I1383683100
sg6
S'AZ1483'
p3022
sg8
I1383679200
sg9
S'A320'
p3023
sg11
S'Alitalia'
p3024
sba(iflightmod
Flight
p3025
(dp3026
g3
S'Vienna'
p3027
sg5
I1383684300
sg6
S'OS527'
p3028
sg8
I1383680100
sg9
S'DH4'
p3029
sg11
S'Austrian Airlines'
p3030
sba(iflightmod
Flight
p3031
(dp3032
g3
S'Moscow'
p3033
sg5
I1383685200
sg6
S'SU2422'
p3034
sg8
I1383672900
sg9
S'A320'
p3035
sg11
S'Aeroflot'
p3036
sba(iflightmod
Flight
p3037
(dp3038
g3
S'Paris'
p3039
sg5
I1383685800
sg6
S'AF1326'
p3040
sg8
I1383679800
sg9
S'A318'
p3041
sg11
S'Air France'
p3042
sba(iflightmod
Flight
p3043
(dp3044
g3
S'Amsterdam'
p3045
sg5
I1383686400
sg6
S'KL1659'
p3046
sg8
I1383680100
sg9
S'B737'
p3047
sg11
S'KLM'
p3048
sba(iflightmod
Flight
p3049
(dp3050
g3
S'Rome'
p3051
sg5
I1383686700
sg6
S'AZ1473'
p3052
sg8
I1383682800
sg9
S'32S'
p3053
sg11
S'Alitalia'
p3054
sba(iflightmod
Flight
p3055
(dp3056
g3
S'Munich'
p3057
sg5
I1383686700
sg6
S'EN8206'
p3058
sg8
I1383683100
sg9
S'E95'
p3059
sg11
S'Air Dolomiti'
p3060
sba(iflightmod
Flight
p3061
(dp3062
g3
S'Brussels'
p3063
sg5
I1383687300
sg6
S'SN3207'
p3064
sg8
I1383681000
sg9
S'AR1'
p3065
sg11
S'Brussels Airlines'
p3066
sba(iflightmod
Flight
p3067
(dp3068
g3
S'Frankfurt'
p3069
sg5
I1383689700
sg6
S'LH332'
p3070
sg8
I1383684900
sg9
S'A321'
p3071
sg11
S'Lufthansa'
p3072
sba(iflightmod
Flight
p3073
(dp3074
g3
S'Catania'
p3075
sg5
I1383690300
sg6
S'AP872'
p3076
sg8
I1383684300
sg9
S'A320'
p3077
sg11
S'Air One'
p3078
sba(iflightmod
Flight
p3079
(dp3080
g3
S'Catania'
p3081
sg5
I1383690900
sg6
S'V71265'
p3082
sg8
I1383684600
sg9
S'B717'
p3083
sg11
S'Volotea'
p3084
sba(iflightmod
Flight
p3085
(dp3086
g3
S'Chisinau'
p3087
sg5
I1383721200
sg6
S'V3260'
p3088
sg8
I1383713100
sg9
S'B733'
p3089
sg11
S'Carpatair'
p3090
sba(iflightmod
Flight
p3091
(dp3092
g3
S'Munich'
p3093
sg5
I1383721500
sg6
S'EN8200'
p3094
sg8
I1383717900
sg9
S'E95'
p3095
sg11
S'Air Dolomiti'
p3096
sba(iflightmod
Flight
p3097
(dp3098
g3
S'Amsterdam'
p3099
sg5
I1383723600
sg6
S'HV5495'
p3100
sg8
I1383717300
sg9
S'B738'
p3101
sg11
S'Transavia'
p3102
sba(iflightmod
Flight
p3103
(dp3104
g3
S'Zurich'
p3105
sg5
I1383723600
sg6
S'LX1660'
p3106
sg8
I1383719400
sg9
S'AR1'
p3107
sg11
S'Swiss'
p3108
sba(iflightmod
Flight
p3109
(dp3110
g3
S'Paris'
p3111
sg5
I1383724800
sg6
S'AF1126'
p3112
sg8
I1383718800
sg9
S'A318'
p3113
sg11
S'Air France'
p3114
sba(iflightmod
Flight
p3115
(dp3116
g3
S'Paris'
p3117
sg5
I1383724800
sg6
S'U24291'
p3118
sg8
I1383718800
sg9
S'A320'
p3119
sg11
S'EasyJet'
p3120
sba(iflightmod
Flight
p3121
(dp3122
g3
S'Rome'
p3123
sg5
I1383726300
sg6
S'AZ1471'
p3124
sg8
I1383722400
sg9
S'E190'
p3125
sg11
S'Alitalia'
p3126
sba(iflightmod
Flight
p3127
(dp3128
g3
S'Istanbul'
p3129
sg5
I1383726300
sg6
S'TK1867'
p3130
sg8
I1383717300
sg9
S'A321'
p3131
sg11
S'Turkish Airlines'
p3132
sba(iflightmod
Flight
p3133
(dp3134
g3
S'Naples'
p3135
sg5
I1383728100
sg6
S'U2991'
p3136
sg8
I1383723600
sg9
S'A319'
p3137
sg11
S'EasyJet'
p3138
sba(iflightmod
Flight
p3139
(dp3140
g3
S'Tunis'
p3141
sg5
I1383729000
sg6
S'TU472'
p3142
sg8
I1383723000
sg9
S'A319'
p3143
sg11
S'Tunisair'
p3144
sba(iflightmod
Flight
p3145
(dp3146
g3
S'Frankfurt'
p3147
sg5
I1383729300
sg6
S'LH324'
p3148
sg8
I1383724500
sg9
S'32A'
p3149
sg11
S'Lufthansa'
p3150
sba(iflightmod
Flight
p3151
(dp3152
g3
S'Lyon'
p3153
sg5
I1383729300
sg6
S'A54522'
p3154
sg8
I1383724500
sg9
S'CR7'
p3155
sg11
S'HOP!'
p3156
sba(iflightmod
Flight
p3157
(dp3158
g3
S'Vienna'
p3159
sg5
I1383729600
sg6
S'OS521'
p3160
sg8
I1383725400
sg9
S'DH4'
p3161
sg11
S'Austrian Airlines'
p3162
sba(iflightmod
Flight
p3163
(dp3164
g3
S'Catania'
p3165
sg5
I1383730500
sg6
S'AP870'
p3166
sg8
I1383724500
sg9
S'A320'
p3167
sg11
S'Air One'
p3168
sba(iflightmod
Flight
p3169
(dp3170
g3
S'Palermo'
p3171
sg5
I1383730800
sg6
S'V71219'
p3172
sg8
I1383725100
sg9
S'B717'
p3173
sg11
S'Volotea'
p3174
sba(iflightmod
Flight
p3175
(dp3176
g3
S'London'
p3177
sg5
I1383731400
sg6
S'BA2582'
p3178
sg8
I1383723900
sg9
S'B734'
p3179
sg11
S'British Airways'
p3180
sba(iflightmod
Flight
p3181
(dp3182
g3
S'Rome'
p3183
sg5
I1383732900
sg6
S'AZ1463'
p3184
sg8
I1383729000
sg9
S'A320'
p3185
sg11
S'Alitalia'
p3186
sba(iflightmod
Flight
p3187
(dp3188
g3
S'Madrid'
p3189
sg5
I1383733200
sg6
S'IB3242'
p3190
sg8
I1383724200
sg9
S'A320'
p3191
sg11
S'Iberia'
p3192
sba(iflightmod
Flight
p3193
(dp3194
g3
S'Marseille'
p3195
sg5
I1383733500
sg6
S'AF4332'
p3196
sg8
I1383729000
sg9
S'A320'
p3197
sg11
S'Air France'
p3198
sba(iflightmod
Flight
p3199
(dp3200
g3
S'Berlin'
p3201
sg5
I1383734400
sg6
S'U24651'
p3202
sg8
I1383728100
sg9
S'A319'
p3203
sg11
S'EasyJet'
p3204
sba(iflightmod
Flight
p3205
(dp3206
g3
S'Amsterdam'
p3207
sg5
I1383734700
sg6
S'KL1653'
p3208
sg8
I1383728100
sg9
S'B737'
p3209
sg11
S'KLM'
p3210
sba(iflightmod
Flight
p3211
(dp3212
g3
S'Brussels'
p3213
sg5
I1383734700
sg6
S'SN3201'
p3214
sg8
I1383728700
sg9
S'AR1'
p3215
sg11
S'Brussels Airlines'
p3216
sba(iflightmod
Flight
p3217
(dp3218
g3
S'Frankfurt'
p3219
sg5
I1383735000
sg6
S'LH326'
p3220
sg8
I1383730200
sg9
S'A320'
p3221
sg11
S'Lufthansa'
p3222
sba(iflightmod
Flight
p3223
(dp3224
g3
S'London'
p3225
sg5
I1383735000
sg6
S'BA578'
p3226
sg8
I1383727500
sg9
S'A319'
p3227
sg11
S'British Airways'
p3228
sba(iflightmod
Flight
p3229
(dp3230
g3
S'Moscow'
p3231
sg5
I1383735000
sg6
S'SU2596'
p3232
sg8
I1383722700
sg9
S'A320'
p3233
sg11
S'Aeroflot'
p3234
sba(iflightmod
Flight
p3235
(dp3236
g3
S'Moscow'
p3237
sg5
I1383747000
sg6
S'UN393'
p3238
sg8
I1383735000
sg9
S'B738'
p3239
sg11
S'Transaero Airlines'
p3240
sba(iflightmod
Flight
p3241
(dp3242
g3
S'London'
p3243
sg5
I1383747900
sg6
S'BA2584'
p3244
sg8
I1383740700
sg9
S'A319'
p3245
sg11
S'British Airways'
p3246
sba(iflightmod
Flight
p3247
(dp3248
g3
S'Rome'
p3249
sg5
I1383748800
sg6
S'AZ1475'
p3250
sg8
I1383744900
sg9
S'A320'
p3251
sg11
S'Alitalia'
p3252
sba(iflightmod
Flight
p3253
(dp3254
g3
S'Lisbon'
p3255
sg5
I1383751800
sg6
S'TP876'
p3256
sg8
I1383741000
sg9
S'A320'
p3257
sg11
S'TAP Portugal'
p3258
sba(iflightmod
Flight
p3259
(dp3260
g3
S'Munich'
p3261
sg5
I1383752100
sg6
S'EN8204'
p3262
sg8
I1383748500
sg9
S'E95'
p3263
sg11
S'Air Dolomiti'
p3264
sba(iflightmod
Flight
p3265
(dp3266
g3
S'Lyon'
p3267
sg5
I1383753000
sg6
S'A54526'
p3268
sg8
I1383748200
sg9
S'E145'
p3269
sg11
S'HOP!'
p3270
sba(iflightmod
Flight
p3271
(dp3272
g3
S'Amsterdam'
p3273
sg5
I1383753300
sg6
S'KL1655'
p3274
sg8
I1383747000
sg9
S'B737'
p3275
sg11
S'KLM'
p3276
sba(iflightmod
Flight
p3277
(dp3278
g3
S'Brussels'
p3279
sg5
I1383755100
sg6
S'SN3205'
p3280
sg8
I1383749100
sg9
S'AR1'
p3281
sg11
S'Brussels Airlines'
p3282
sba(iflightmod
Flight
p3283
(dp3284
g3
S'London'
p3285
sg5
I1383755400
sg6
S'U25267'
p3286
sg8
I1383747900
sg9
S'A319'
p3287
sg11
S'EasyJet'
p3288
sba(iflightmod
Flight
p3289
(dp3290
g3
S'Tirana'
p3291
sg5
I1383755400
sg6
S'LZ673'
p3292
sg8
I1383750000
sg9
S'A319'
p3293
sg11
S'Belle Air'
p3294
sba(iflightmod
Flight
p3295
(dp3296
g3
S'Paris'
p3297
sg5
I1383755700
sg6
S'AF1226'
p3298
sg8
I1383749700
sg9
S'A318'
p3299
sg11
S'Air France'
p3300
sba(iflightmod
Flight
p3301
(dp3302
g3
S'Istanbul'
p3303
sg5
I1383757200
sg6
S'TK1869'
p3304
sg8
I1383747900
sg9
S'A320'
p3305
sg11
S'Turkish Airlines'
p3306
sba(iflightmod
Flight
p3307
(dp3308
g3
S'Frankfurt'
p3309
sg5
I1383757800
sg6
S'LH330'
p3310
sg8
I1383753000
sg9
S'A320'
p3311
sg11
S'Lufthansa'
p3312
sba(iflightmod
Flight
p3313
(dp3314
g3
S'Vienna'
p3315
sg5
I1383759000
sg6
S'OS529'
p3316
sg8
I1383754800
sg9
S'DH4'
p3317
sg11
S'Austrian Airlines'
p3318
sba(iflightmod
Flight
p3319
(dp3320
g3
S'London'
p3321
sg5
I1383760200
sg6
S'BA2586'
p3322
sg8
I1383753300
sg9
S'B734'
p3323
sg11
S'British Airways'
p3324
sba(iflightmod
Flight
p3325
(dp3326
g3
S'Naples'
p3327
sg5
I1383760200
sg6
S'U2997'
p3328
sg8
I1383755700
sg9
S'A319'
p3329
sg11
S'EasyJet'
p3330
sba(iflightmod
Flight
p3331
(dp3332
g3
S'Zurich'
p3333
sg5
I1383760200
sg6
S'LX1664'
p3334
sg8
I1383756000
sg9
S'AR1'
p3335
sg11
S'Swiss'
p3336
sba(iflightmod
Flight
p3337
(dp3338
g3
S'Palermo'
p3339
sg5
I1383760500
sg6
S'AP735'
p3340
sg8
I1383755100
sg9
S'A320'
p3341
sg11
S'Air One'
p3342
sba(iflightmod
Flight
p3343
(dp3344
g3
S'Rome'
p3345
sg5
I1383761100
sg6
S'AZ1467'
p3346
sg8
I1383757200
sg9
S'E75'
p3347
sg11
S'Alitalia'
p3348
sba(iflightmod
Flight
p3349
(dp3350
g3
S'Madrid'
p3351
sg5
I1383761700
sg6
S'IB3246'
p3352
sg8
I1383753000
sg9
S'A321'
p3353
sg11
S'Iberia'
p3354
sba(iflightmod
Flight
p3355
(dp3356
g3
S'Paris'
p3357
sg5
I1383762000
sg6
S'U24295'
p3358
sg8
I1383756000
sg9
S'A320'
p3359
sg11
S'EasyJet'
p3360
sba(iflightmod
Flight
p3361
(dp3362
g3
S'Lisbon'
p3363
sg5
I1383762300
sg6
S'U27681'
p3364
sg8
I1383751800
sg9
S'A319'
p3365
sg11
S'EasyJet'
p3366
sba(iflightmod
Flight
p3367
(dp3368
g3
S'Rome'
p3369
sg5
I1383764700
sg6
S'AZ1481'
p3370
sg8
I1383760800
sg9
S'A319'
p3371
sg11
S'Alitalia'
p3372
sba(iflightmod
Flight
p3373
(dp3374
g3
S'Paris'
p3375
sg5
I1383766200
sg6
S'U23795'
p3376
sg8
I1383760200
sg9
S'A319'
p3377
sg11
S'EasyJet'
p3378
sba(iflightmod
Flight
p3379
(dp3380
g3
S'Rome'
p3381
sg5
I1383769500
sg6
S'AZ1483'
p3382
sg8
I1383765600
sg9
S'A320'
p3383
sg11
S'Alitalia'
p3384
sba(iflightmod
Flight
p3385
(dp3386
g3
S'Moscow'
p3387
sg5
I1383771600
sg6
S'SU2422'
p3388
sg8
I1383759300
sg9
S'A320'
p3389
sg11
S'Aeroflot'
p3390
sba(iflightmod
Flight
p3391
(dp3392
g3
S'Bari'
p3393
sg5
I1383771900
sg6
S'V71235'
p3394
sg8
I1383767100
sg9
S'B712'
p3395
sg11
S'Volotea'
p3396
sba(iflightmod
Flight
p3397
(dp3398
g3
S'Paris'
p3399
sg5
I1383772200
sg6
S'AF1326'
p3400
sg8
I1383766200
sg9
S'A318'
p3401
sg11
S'Air France'
p3402
sba(iflightmod
Flight
p3403
(dp3404
g3
S'Amsterdam'
p3405
sg5
I1383772800
sg6
S'KL1659'
p3406
sg8
I1383766500
sg9
S'B737'
p3407
sg11
S'KLM'
p3408
sba(iflightmod
Flight
p3409
(dp3410
g3
S'Rome'
p3411
sg5
I1383773100
sg6
S'AZ1473'
p3412
sg8
I1383769200
sg9
S'E170'
p3413
sg11
S'Alitalia'
p3414
sba(iflightmod
Flight
p3415
(dp3416
g3
S'Munich'
p3417
sg5
I1383773100
sg6
S'EN8206'
p3418
sg8
I1383769500
sg9
S'E190'
p3419
sg11
S'Air Dolomiti'
p3420
sba(iflightmod
Flight
p3421
(dp3422
g3
S'Brussels'
p3423
sg5
I1383773700
sg6
S'SN3207'
p3424
sg8
I1383767400
sg9
S'RJ1H'
p3425
sg11
S'Brussels Airlines'
p3426
sba(iflightmod
Flight
p3427
(dp3428
g3
S'Frankfurt'
p3429
sg5
I1383776100
sg6
S'LH332'
p3430
sg8
I1383771300
sg9
S'A321'
p3431
sg11
S'Lufthansa'
p3432
sba(iflightmod
Flight
p3433
(dp3434
g3
S'Catania'
p3435
sg5
I1383776700
sg6
S'AP872'
p3436
sg8
I1383770700
sg9
S'A320'
p3437
sg11
S'Air One'
p3438
sba(iflightmod
Flight
p3439
(dp3440
g3
S'Casablanca'
p3441
sg5
I1383801600
sg6
S'3O2477'
p3442
sg8
I1383786900
sg9
S'A320'
p3443
sg11
S'Air Arabia Maroc'
p3444
sba(iflightmod
Flight
p3445
(dp3446
g3
S'Tirana'
p3447
sg5
I1383805500
sg6
S'LZ673'
p3448
sg8
I1383800400
sg9
S'A319'
p3449
sg11
S'Belle Air'
p3450
sba(iflightmod
Flight
p3451
(dp3452
g3
S'Munich'
p3453
sg5
I1383807900
sg6
S'EN8200'
p3454
sg8
I1383804300
sg9
S'E95'
p3455
sg11
S'Air Dolomiti'
p3456
sba(iflightmod
Flight
p3457
(dp3458
g3
S'Nantes'
p3459
sg5
I1383809700
sg6
S'TO3972'
p3460
sg8
I1383802800
sg9
S'B738'
p3461
sg11
S'Transavia France'
p3462
sba(iflightmod
Flight
p3463
(dp3464
g3
S'Zurich'
p3465
sg5
I1383810000
sg6
S'LX1660'
p3466
sg8
I1383805800
sg9
S'AR1'
p3467
sg11
S'Swiss'
p3468
sba(iflightmod
Flight
p3469
(dp3470
g3
S'Paris'
p3471
sg5
I1383811200
sg6
S'AF1126'
p3472
sg8
I1383805200
sg9
S'A319'
p3473
sg11
S'Air France'
p3474
sba(iflightmod
Flight
p3475
(dp3476
g3
S'Paris'
p3477
sg5
I1383811200
sg6
S'U24291'
p3478
sg8
I1383805200
sg9
S'A320'
p3479
sg11
S'EasyJet'
p3480
sba(iflightmod
Flight
p3481
(dp3482
g3
S'Philadelphia'
p3483
sg5
I1383812100
sg6
S'US714'
p3484
sg8
I1383781500
sg9
S'B762'
p3485
sg11
S'US Airways'
p3486
sba(iflightmod
Flight
p3487
(dp3488
g3
S'Rome'
p3489
sg5
I1383812700
sg6
S'AZ1471'
p3490
sg8
I1383808800
sg9
S'E190'
p3491
sg11
S'Alitalia'
p3492
sba(iflightmod
Flight
p3493
(dp3494
g3
S'Istanbul'
p3495
sg5
I1383812700
sg6
S'TK1867'
p3496
sg8
I1383803700
sg9
S'A320'
p3497
sg11
S'Turkish Airlines'
p3498
sba(iflightmod
Flight
p3499
(dp3500
g3
S'Naples'
p3501
sg5
I1383814500
sg6
S'U2991'
p3502
sg8
I1383810000
sg9
S'A319'
p3503
sg11
S'EasyJet'
p3504
sba(iflightmod
Flight
p3505
(dp3506
g3
S'Lyon'
p3507
sg5
I1383815700
sg6
S'A54522'
p3508
sg8
I1383810900
sg9
S'CR7'
p3509
sg11
S'HOP!'
p3510
sba(iflightmod
Flight
p3511
(dp3512
g3
S'Vienna'
p3513
sg5
I1383816000
sg6
S'OS521'
p3514
sg8
I1383811800
sg9
S'DH4'
p3515
sg11
S'Austrian Airlines'
p3516
sba(iflightmod
Flight
p3517
(dp3518
g3
S'Catania'
p3519
sg5
I1383816300
sg6
S'AP870'
p3520
sg8
I1383810300
sg9
S'A320'
p3521
sg11
S'Air One'
p3522
sba(iflightmod
Flight
p3523
(dp3524
g3
S'Frankfurt'
p3525
sg5
I1383816300
sg6
S'LH324'
p3526
sg8
I1383811500
sg9
S'A320'
p3527
sg11
S'Lufthansa'
p3528
sba(iflightmod
Flight
p3529
(dp3530
g3
S'London'
p3531
sg5
I1383817200
sg6
S'BA2582'
p3532
sg8
I1383809700
sg9
S'B734'
p3533
sg11
S'British Airways'
p3534
sba(iflightmod
Flight
p3535
(dp3536
g3
S'Manchester'
p3537
sg5
I1383819000
sg6
S'ZB1376'
p3538
sg8
I1383810600
sg9
S'A320'
p3539
sg11
S'Monarch Airlines'
p3540
sba(iflightmod
Flight
p3541
(dp3542
g3
S'Rome'
p3543
sg5
I1383819300
sg6
S'AZ1463'
p3544
sg8
I1383815400
sg9
S'A320'
p3545
sg11
S'Alitalia'
p3546
sba(iflightmod
Flight
p3547
(dp3548
g3
S'Madrid'
p3549
sg5
I1383819600
sg6
S'IB3242'
p3550
sg8
I1383810600
sg9
S'A319'
p3551
sg11
S'Iberia'
p3552
sba(iflightmod
Flight
p3553
(dp3554
g3
S'Toulouse'
p3555
sg5
I1383820500
sg6
S'AF4374'
p3556
sg8
I1383814500
sg9
S'A319'
p3557
sg11
S'Air France'
p3558
sba(iflightmod
Flight
p3559
(dp3560
g3
S'Berlin'
p3561
sg5
I1383820800
sg6
S'U24651'
p3562
sg8
I1383814500
sg9
S'A319'
p3563
sg11
S'EasyJet'
p3564
sba(iflightmod
Flight
p3565
(dp3566
g3
S'Amsterdam'
p3567
sg5
I1383821100
sg6
S'KL1653'
p3568
sg8
I1383814500
sg9
S'E190'
p3569
sg11
S'KLM'
p3570
sba(iflightmod
Flight
p3571
(dp3572
g3
S'Brussels'
p3573
sg5
I1383821100
sg6
S'SN3201'
p3574
sg8
I1383815100
sg9
S'RJ1H'
p3575
sg11
S'Brussels Airlines'
p3576
sba(iflightmod
Flight
p3577
(dp3578
g3
S'London'
p3579
sg5
I1383821100
sg6
S'U25263'
p3580
sg8
I1383813600
sg9
S'A319'
p3581
sg11
S'EasyJet'
p3582
sba(iflightmod
Flight
p3583
(dp3584
g3
S'Lisbon'
p3585
sg5
I1383821100
sg6
S'TP874'
p3586
sg8
I1383810600
sg9
S'A320'
p3587
sg11
S'TAP Portugal'
p3588
sba(iflightmod
Flight
p3589
(dp3590
g3
S'Frankfurt'
p3591
sg5
I1383821400
sg6
S'LH326'
p3592
sg8
I1383816600
sg9
S'A321'
p3593
sg11
S'Lufthansa'
p3594
sba(iflightmod
Flight
p3595
(dp3596
g3
S'London'
p3597
sg5
I1383821400
sg6
S'BA578'
p3598
sg8
I1383813900
sg9
S'A319'
p3599
sg11
S'British Airways'
p3600
sba(iflightmod
Flight
p3601
(dp3602
g3
S'Moscow'
p3603
sg5
I1383821400
sg6
S'SU2596'
p3604
sg8
I1383809100
sg9
S'A320'
p3605
sg11
S'Aeroflot'
p3606
sba(iflightmod
Flight
p3607
(dp3608
g3
S'Paris'
p3609
sg5
I1383822000
sg6
S'AF1426'
p3610
sg8
I1383816000
sg9
S'A318'
p3611
sg11
S'Air France'
p3612
sba(iflightmod
Flight
p3613
(dp3614
g3
S'Stuttgart'
p3615
sg5
I1383822600
sg6
S'AB8984'
p3616
sg8
I1383818400
sg9
S'DH4'
p3617
sg11
S'Air Berlin'
p3618
sba(iflightmod
Flight
p3619
(dp3620
g3
S'Barcelona'
p3621
sg5
I1383823200
sg6
S'VY6400'
p3622
sg8
I1383816900
sg9
S'A320'
p3623
sg11
S'Vueling'
p3624
sba(iflightmod
Flight
p3625
(dp3626
g3
S'Munich'
p3627
sg5
I1383823800
sg6
S'EN8202'
p3628
sg8
I1383820200
sg9
S'E95'
p3629
sg11
S'Air Dolomiti'
p3630
sba(iflightmod
Flight
p3631
(dp3632
g3
S'Paris'
p3633
sg5
I1383825300
sg6
S'U23793'
p3634
sg8
I1383819300
sg9
S'A319'
p3635
sg11
S'EasyJet'
p3636
sba(iflightmod
Flight
p3637
(dp3638
g3
S'Geneva'
p3639
sg5
I1383825900
sg6
S'U21327'
p3640
sg8
I1383821400
sg9
S'A319'
p3641
sg11
S'EasyJet'
p3642
sba(iflightmod
Flight
p3643
(dp3644
g3
S'Istanbul'
p3645
sg5
I1383826800
sg6
S'TK1871'
p3646
sg8
I1383817800
sg9
S'B739'
p3647
sg11
S'Turkish Airlines'
p3648
sba(iflightmod
Flight
p3649
(dp3650
g3
S'Stuttgart'
p3651
sg5
I1383822600
sg6
S'AB8984'
p3652
sg8
I1383818400
sg9
S'DH8D'
p3653
sg11
S'Air Berlin'
p3654
sba(iflightmod
Flight
p3655
(dp3656
g3
S'Munich'
p3657
sg5
I1383823800
sg6
S'EN8202'
p3658
sg8
I1383820200
sg9
S'E190'
p3659
sg11
S'Air Dolomiti'
p3660
sba(iflightmod
Flight
p3661
(dp3662
g3
S'Rome'
p3663
sg5
I1383827700
sg6
S'AZ1465'
p3664
sg8
I1383823800
sg9
S'A319'
p3665
sg11
S'Alitalia'
p3666
sba(iflightmod
Flight
p3667
(dp3668
g3
S'Frankfurt'
p3669
sg5
I1383827700
sg6
S'LH328'
p3670
sg8
I1383822900
sg9
S'32A'
p3671
sg11
S'Lufthansa'
p3672
sba(iflightmod
Flight
p3673
(dp3674
g3
S'Frankfurt'
p3675
sg5
I1383827700
sg6
S'LH328'
p3676
sg8
I1383822900
sg9
S'A320'
p3677
sg11
S'Lufthansa'
p3678
sba(iflightmod
Flight
p3679
(dp3680
g3
S'Doha'
p3681
sg5
I1383828000
sg6
S'QR129'
p3682
sg8
I1383804300
sg9
S'A320'
p3683
sg11
S'Qatar Airways'
p3684
sba(iflightmod
Flight
p3685
(dp3686
g3
S'Dubai'
p3687
sg5
I1383828300
sg6
S'EK135'
p3688
sg8
I1383804300
sg9
S'B77W'
p3689
sg11
S'Emirates'
p3690
sba(iflightmod
Flight
p3691
(dp3692
g3
S'Paris'
p3693
sg5
I1383828300
sg6
S'TO3342'
p3694
sg8
I1383822000
sg9
S'B738'
p3695
sg11
S'Transavia France'
p3696
sba(iflightmod
Flight
p3697
(dp3698
g3
S'Zurich'
p3699
sg5
I1383829200
sg6
S'LX1662'
p3700
sg8
I1383825300
sg9
S'32A'
p3701
sg11
S'Swiss'
p3702
sba(iflightmod
Flight
p3703
(dp3704
g3
S'Nantes'
p3705
sg5
I1383829800
sg6
S'V72212'
p3706
sg8
I1383822900
sg9
S'B717'
p3707
sg11
S'Volotea'
p3708
sba(iflightmod
Flight
p3709
(dp3710
g3
S'Palermo'
p3711
sg5
I1383831300
sg6
S'AP735'
p3712
sg8
I1383825900
sg9
S'A320'
p3713
sg11
S'Air One'
p3714
sba(iflightmod
Flight
p3715
(dp3716
g3
S'Paris'
p3717
sg5
I1383831600
sg6
S'AF1726'
p3718
sg8
I1383825600
sg9
S'A319'
p3719
sg11
S'Air France'
p3720
sba(iflightmod
Flight
p3721
(dp3722
g3
S'Bordeaux'
p3723
sg5
I1383832200
sg6
S'V71347'
p3724
sg8
I1383825600
sg9
S'B717'
p3725
sg11
S'Volotea'
p3726
sba(iflightmod
Flight
p3727
(dp3728
g3
S'Naples'
p3729
sg5
I1383833400
sg6
S'U2995'
p3730
sg8
I1383828900
sg9
S'A319'
p3731
sg11
S'EasyJet'
p3732
sba(iflightmod
Flight
p3733
(dp3734
g3
S'London'
p3735
sg5
I1383834300
sg6
S'BA2584'
p3736
sg8
I1383827100
sg9
S'B734'
p3737
sg11
S'British Airways'
p3738
sba(iflightmod
Flight
p3739
(dp3740
g3
S'Rome'
p3741
sg5
I1383835200
sg6
S'AZ1475'
p3742
sg8
I1383831300
sg9
S'A320'
p3743
sg11
S'Alitalia'
p3744
sba(iflightmod
Flight
p3745
(dp3746
g3
S'Lyon'
p3747
sg5
I1383837300
sg6
S'U24465'
p3748
sg8
I1383832800
sg9
S'A319'
p3749
sg11
S'EasyJet'
p3750
sba(iflightmod
Flight
p3751
(dp3752
g3
S'Munich'
p3753
sg5
I1383838500
sg6
S'EN8204'
p3754
sg8
I1383834900
sg9
S'E95'
p3755
sg11
S'Air Dolomiti'
p3756
sba(iflightmod
Flight
p3757
(dp3758
g3
S'Lyon'
p3759
sg5
I1383839400
sg6
S'A54526'
p3760
sg8
I1383834600
sg9
S'E145'
p3761
sg11
S'HOP!'
p3762
sba(iflightmod
Flight
p3763
(dp3764
g3
S'Amsterdam'
p3765
sg5
I1383839700
sg6
S'KL1655'
p3766
sg8
I1383833400
sg9
S'B737'
p3767
sg11
S'KLM'
p3768
sba(iflightmod
Flight
p3769
(dp3770
g3
S'Bilbao'
p3771
sg5
I1383840000
sg6
S'V71345'
p3772
sg8
I1383832200
sg9
S'B717'
p3773
sg11
S'Volotea'
p3774
sba(iflightmod
Flight
p3775
(dp3776
g3
S'Southend'
p3777
sg5
I1383840000
sg6
S'U27397'
p3778
sg8
I1383832800
sg9
S'A319'
p3779
sg11
S'EasyJet'
p3780
sba(iflightmod
Flight
p3781
(dp3782
g3
S'Nantes'
p3783
sg5
I1383829800
sg6
S'V72212'
p3784
sg8
I1383822900
sg9
S'B712'
p3785
sg11
S'Volotea'
p3786
sba(iflightmod
Flight
p3787
(dp3788
g3
S'London'
p3789
sg5
I1383841800
sg6
S'U25267'
p3790
sg8
I1383834300
sg9
S'A319'
p3791
sg11
S'EasyJet'
p3792
sba(iflightmod
Flight
p3793
(dp3794
g3
S'Paris'
p3795
sg5
I1383842100
sg6
S'AF1226'
p3796
sg8
I1383836100
sg9
S'A318'
p3797
sg11
S'Air France'
p3798
sba(iflightmod
Flight
p3799
(dp3800
g3
S'Istanbul'
p3801
sg5
I1383843600
sg6
S'TK1869'
p3802
sg8
I1383834300
sg9
S'A319'
p3803
sg11
S'Turkish Airlines'
p3804
sba(iflightmod
Flight
p3805
(dp3806
g3
S'Zurich'
p3807
sg5
I1383829200
sg6
S'LX1662'
p3808
sg8
I1383825300
sg9
S'A320'
p3809
sg11
S'Swiss'
p3810
sba(iflightmod
Flight
p3811
(dp3812
g3
S'Bordeaux'
p3813
sg5
I1383832200
sg6
S'V71347'
p3814
sg8
I1383825600
sg9
S'B712'
p3815
sg11
S'Volotea'
p3816
sba(iflightmod
Flight
p3817
(dp3818
g3
S'Frankfurt'
p3819
sg5
I1383844200
sg6
S'LH330'
p3820
sg8
I1383839400
sg9
S'32A'
p3821
sg11
S'Lufthansa'
p3822
sba(iflightmod
Flight
p3823
(dp3824
g3
S'Vienna'
p3825
sg5
I1383845400
sg6
S'OS529'
p3826
sg8
I1383841200
sg9
S'DH4'
p3827
sg11
S'Austrian Airlines'
p3828
sba(iflightmod
Flight
p3829
(dp3830
g3
S'London'
p3831
sg5
I1383846600
sg6
S'BA2586'
p3832
sg8
I1383839700
sg9
S'B734'
p3833
sg11
S'British Airways'
p3834
sba(iflightmod
Flight
p3835
(dp3836
g3
S'Naples'
p3837
sg5
I1383846600
sg6
S'U2997'
p3838
sg8
I1383842100
sg9
S'A319'
p3839
sg11
S'EasyJet'
p3840
sba(iflightmod
Flight
p3841
(dp3842
g3
S'Zurich'
p3843
sg5
I1383846600
sg6
S'LX1664'
p3844
sg8
I1383842400
sg9
S'AR1'
p3845
sg11
S'Swiss'
p3846
sba(iflightmod
Flight
p3847
(dp3848
g3
S'Lamezia Terme'
p3849
sg5
I1383846900
sg6
S'AP729'
p3850
sg8
I1383841500
sg9
S'A320'
p3851
sg11
S'Air One'
p3852
sba(iflightmod
Flight
p3853
(dp3854
g3
S'Rome'
p3855
sg5
I1383847500
sg6
S'AZ1467'
p3856
sg8
I1383843600
sg9
S'E75'
p3857
sg11
S'Alitalia'
p3858
sba(iflightmod
Flight
p3859
(dp3860
g3
S'Madrid'
p3861
sg5
I1383848100
sg6
S'IB3246'
p3862
sg8
I1383839400
sg9
S'A321'
p3863
sg11
S'Iberia'
p3864
sba(iflightmod
Flight
p3865
(dp3866
g3
S'Manchester'
p3867
sg5
I1383848100
sg6
S'U21863'
p3868
sg8
I1383839100
sg9
S'A319'
p3869
sg11
S'EasyJet'
p3870
sba(iflightmod
Flight
p3871
(dp3872
g3
S'Paris'
p3873
sg5
I1383848400
sg6
S'U24295'
p3874
sg8
I1383842400
sg9
S'A320'
p3875
sg11
S'EasyJet'
p3876
sba(iflightmod
Flight
p3877
(dp3878
g3
S'Barcelona'
p3879
sg5
I1383849900
sg6
S'VY6402'
p3880
sg8
I1383843600
sg9
S'A320'
p3881
sg11
S'Vueling'
p3882
sba(iflightmod
Flight
p3883
(dp3884
g3
S'Rome'
p3885
sg5
I1383851100
sg6
S'AZ1481'
p3886
sg8
I1383847200
sg9
S'32S'
p3887
sg11
S'Alitalia'
p3888
sba(iflightmod
Flight
p3889
(dp3890
g3
S'Munich'
p3891
sg5
I1383838500
sg6
S'EN8204'
p3892
sg8
I1383834900
sg9
S'E190'
p3893
sg11
S'Air Dolomiti'
p3894
sba(iflightmod
Flight
p3895
(dp3896
g3
S'Bilbao'
p3897
sg5
I1383840000
sg6
S'V71345'
p3898
sg8
I1383832200
sg9
S'B712'
p3899
sg11
S'Volotea'
p3900
sba(iflightmod
Flight
p3901
(dp3902
g3
S'Istanbul'
p3903
sg5
I1383843600
sg6
S'TK1869'
p3904
sg8
I1383834300
sg9
S'A320'
p3905
sg11
S'Turkish Airlines'
p3906
sba(iflightmod
Flight
p3907
(dp3908
g3
S'Paris'
p3909
sg5
I1383852600
sg6
S'U23795'
p3910
sg8
I1383846600
sg9
S'A319'
p3911
sg11
S'EasyJet'
p3912
sba(iflightmod
Flight
p3913
(dp3914
g3
S'Mulhouse'
p3915
sg5
I1383852900
sg6
S'U21163'
p3916
sg8
I1383849000
sg9
S'A319'
p3917
sg11
S'EasyJet'
p3918
sba(iflightmod
Flight
p3919
(dp3920
g3
S'Catania'
p3921
sg5
I1383855900
sg6
S'V71265'
p3922
sg8
I1383849600
sg9
S'B717'
p3923
sg11
S'Volotea'
p3924
sba(iflightmod
Flight
p3925
(dp3926
g3
S'Rome'
p3927
sg5
I1383855900
sg6
S'AZ1483'
p3928
sg8
I1383852000
sg9
S'A320'
p3929
sg11
S'Alitalia'
p3930
sba(iflightmod
Flight
p3931
(dp3932
g3
S'Vienna'
p3933
sg5
I1383857100
sg6
S'OS527'
p3934
sg8
I1383852900
sg9
S'DH4'
p3935
sg11
S'Austrian Airlines'
p3936
sba(iflightmod
Flight
p3937
(dp3938
g3
S'Moscow'
p3939
sg5
I1383858000
sg6
S'SU2422'
p3940
sg8
I1383845700
sg9
S'A320'
p3941
sg11
S'Aeroflot'
p3942
sba(iflightmod
Flight
p3943
(dp3944
g3
S'Paris'
p3945
sg5
I1383858600
sg6
S'AF1326'
p3946
sg8
I1383852600
sg9
S'A318'
p3947
sg11
S'Air France'
p3948
sba(iflightmod
Flight
p3949
(dp3950
g3
S'Amsterdam'
p3951
sg5
I1383859200
sg6
S'KL1659'
p3952
sg8
I1383852900
sg9
S'B737'
p3953
sg11
S'KLM'
p3954
sba(iflightmod
Flight
p3955
(dp3956
g3
S'Rome'
p3957
sg5
I1383859500
sg6
S'AZ1473'
p3958
sg8
I1383855600
sg9
S'A319'
p3959
sg11
S'Alitalia'
p3960
sba(iflightmod
Flight
p3961
(dp3962
g3
S'Munich'
p3963
sg5
I1383859500
sg6
S'EN8206'
p3964
sg8
I1383855900
sg9
S'E95'
p3965
sg11
S'Air Dolomiti'
p3966
sba(iflightmod
Flight
p3967
(dp3968
g3
S'Brussels'
p3969
sg5
I1383860100
sg6
S'SN3207'
p3970
sg8
I1383853800
sg9
S'AR1'
p3971
sg11
S'Brussels Airlines'
p3972
sba(iflightmod
Flight
p3973
(dp3974
g3
S'Frankfurt'
p3975
sg5
I1383862500
sg6
S'LH332'
p3976
sg8
I1383857700
sg9
S'32A'
p3977
sg11
S'Lufthansa'
p3978
sba(iflightmod
Flight
p3979
(dp3980
g3
S'Catania'
p3981
sg5
I1383863100
sg6
S'AP872'
p3982
sg8
I1383857100
sg9
S'A320'
p3983
sg11
S'Air One'
p3984
sba(iflightmod
Flight
p3985
(dp3986
g3
S'Tirana'
p3987
sg5
I1383891900
sg6
S'LZ675'
p3988
sg8
I1383886800
sg9
S'A319'
p3989
sg11
S'Belle Air'
p3990
sba(iflightmod
Flight
p3991
(dp3992
g3
S'Chisinau'
p3993
sg5
I1383894000
sg6
S'V3260'
p3994
sg8
I1383885900
sg9
S'B733'
p3995
sg11
S'Carpatair'
p3996
sba(iflightmod
Flight
p3997
(dp3998
g3
S'Munich'
p3999
sg5
I1383894300
sg6
S'EN8200'
p4000
sg8
I1383890700
sg9
S'E95'
p4001
sg11
S'Air Dolomiti'
p4002
sba(iflightmod
Flight
p4003
(dp4004
g3
S'Paris'
p4005
sg5
I1383894900
sg6
S'TO3342'
p4006
sg8
I1383888600
sg9
S'B738'
p4007
sg11
S'Transavia France'
p4008
sba(iflightmod
Flight
p4009
(dp4010
g3
S'Amsterdam'
p4011
sg5
I1383895800
sg6
S'HV5495'
p4012
sg8
I1383889500
sg9
S'B738'
p4013
sg11
S'Transavia'
p4014
sba(iflightmod
Flight
p4015
(dp4016
g3
S'Zurich'
p4017
sg5
I1383896400
sg6
S'LX1660'
p4018
sg8
I1383892200
sg9
S'AR1'
p4019
sg11
S'Swiss'
p4020
sba(iflightmod
Flight
p4021
(dp4022
g3
S'Paris'
p4023
sg5
I1383897600
sg6
S'AF1126'
p4024
sg8
I1383891600
sg9
S'A318'
p4025
sg11
S'Air France'
p4026
sba(iflightmod
Flight
p4027
(dp4028
g3
S'Paris'
p4029
sg5
I1383897600
sg6
S'U24291'
p4030
sg8
I1383891600
sg9
S'A320'
p4031
sg11
S'EasyJet'
p4032
sba(iflightmod
Flight
p4033
(dp4034
g3
S'Philadelphia'
p4035
sg5
I1383898500
sg6
S'US714'
p4036
sg8
I1383867900
sg9
S'B762'
p4037
sg11
S'US Airways'
p4038
sba(iflightmod
Flight
p4039
(dp4040
g3
S'Rome'
p4041
sg5
I1383899100
sg6
S'AZ1471'
p4042
sg8
I1383895200
sg9
S'E190'
p4043
sg11
S'Alitalia'
p4044
sba(iflightmod
Flight
p4045
(dp4046
g3
S'Istanbul'
p4047
sg5
I1383899100
sg6
S'TK1867'
p4048
sg8
I1383890100
sg9
S'A321'
p4049
sg11
S'Turkish Airlines'
p4050
sba(iflightmod
Flight
p4051
(dp4052
g3
S'Catania'
p4053
sg5
I1383855900
sg6
S'V71265'
p4054
sg8
I1383849600
sg9
S'B712'
p4055
sg11
S'Volotea'
p4056
sba(iflightmod
Flight
p4057
(dp4058
g3
S'Naples'
p4059
sg5
I1383900900
sg6
S'U2991'
p4060
sg8
I1383896400
sg9
S'A319'
p4061
sg11
S'EasyJet'
p4062
sba(iflightmod
Flight
p4063
(dp4064
g3
S'Vienna'
p4065
sg5
I1383857100
sg6
S'OS527'
p4066
sg8
I1383852900
sg9
S'DH8D'
p4067
sg11
S'Austrian Airlines'
p4068
sba(iflightmod
Flight
p4069
(dp4070
g3
S'Lyon'
p4071
sg5
I1383902100
sg6
S'A54522'
p4072
sg8
I1383897300
sg9
S'CR7'
p4073
sg11
S'HOP!'
p4074
sba(iflightmod
Flight
p4075
(dp4076
g3
S'Vienna'
p4077
sg5
I1383902400
sg6
S'OS521'
p4078
sg8
I1383898200
sg9
S'DH4'
p4079
sg11
S'Austrian Airlines'
p4080
sba(iflightmod
Flight
p4081
(dp4082
g3
S'Munich'
p4083
sg5
I1383859500
sg6
S'EN8206'
p4084
sg8
I1383855900
sg9
S'E190'
p4085
sg11
S'Air Dolomiti'
p4086
sba(iflightmod
Flight
p4087
(dp4088
g3
S'Brussels'
p4089
sg5
I1383860100
sg6
S'SN3207'
p4090
sg8
I1383853800
sg9
S'RJ1H'
p4091
sg11
S'Brussels Airlines'
p4092
sba(iflightmod
Flight
p4093
(dp4094
g3
S'Frankfurt'
p4095
sg5
I1383902700
sg6
S'LH324'
p4096
sg8
I1383897900
sg9
S'A320'
p4097
sg11
S'Lufthansa'
p4098
sba(iflightmod
Flight
p4099
(dp4100
g3
S'Catania'
p4101
sg5
I1383903300
sg6
S'AP870'
p4102
sg8
I1383897300
sg9
S'A320'
p4103
sg11
S'Air One'
p4104
sba(iflightmod
Flight
p4105
(dp4106
g3
S'Frankfurt'
p4107
sg5
I1383862500
sg6
S'LH332'
p4108
sg8
I1383857700
sg9
S'A319'
p4109
sg11
S'Lufthansa'
p4110
sba(iflightmod
Flight
p4111
(dp4112
g3
S'Rome'
p4113
sg5
I1383905700
sg6
S'AZ1463'
p4114
sg8
I1383901800
sg9
S'A320'
p4115
sg11
S'Alitalia'
p4116
sba(iflightmod
Flight
p4117
(dp4118
g3
S'London'
p4119
sg5
I1383905700
sg6
S'BA2582'
p4120
sg8
I1383898200
sg9
S'B734'
p4121
sg11
S'British Airways'
p4122
sba(iflightmod
Flight
p4123
(dp4124
g3
S'Madrid'
p4125
sg5
I1383906000
sg6
S'IB3242'
p4126
sg8
I1383897000
sg9
S'A321'
p4127
sg11
S'Iberia'
p4128
sba(iflightmod
Flight
p4129
(dp4130
g3
S'Berlin'
p4131
sg5
I1383907200
sg6
S'U24651'
p4132
sg8
I1383900900
sg9
S'A319'
p4133
sg11
S'EasyJet'
p4134
sba(iflightmod
Flight
p4135
(dp4136
g3
S'Amsterdam'
p4137
sg5
I1383907500
sg6
S'KL1653'
p4138
sg8
I1383900900
sg9
S'B738'
p4139
sg11
S'KLM'
p4140
sba(iflightmod
Flight
p4141
(dp4142
g3
S'Brussels'
p4143
sg5
I1383907500
sg6
S'SN3201'
p4144
sg8
I1383901500
sg9
S'AR1'
p4145
sg11
S'Brussels Airlines'
p4146
sba(iflightmod
Flight
p4147
(dp4148
g3
S'London'
p4149
sg5
I1383907500
sg6
S'U25263'
p4150
sg8
I1383900000
sg9
S'A319'
p4151
sg11
S'EasyJet'
p4152
sba(iflightmod
Flight
p4153
(dp4154
g3
S'Lisbon'
p4155
sg5
I1383907500
sg6
S'TP874'
p4156
sg8
I1383897000
sg9
S'A320'
p4157
sg11
S'TAP Portugal'
p4158
sba(iflightmod
Flight
p4159
(dp4160
g3
S'Frankfurt'
p4161
sg5
I1383907800
sg6
S'LH326'
p4162
sg8
I1383903000
sg9
S'32A'
p4163
sg11
S'Lufthansa'
p4164
sba(iflightmod
Flight
p4165
(dp4166
g3
S'Chisinau'
p4167
sg5
I1383894000
sg6
S'V3260'
p4168
sg8
I1383885900
sg9
S'F100'
p4169
sg11
S'Carpatair'
p4170
sba(iflightmod
Flight
p4171
(dp4172
g3
S'Istanbul'
p4173
sg5
I1383899100
sg6
S'TK1867'
p4174
sg8
I1383890100
sg9
S'B738'
p4175
sg11
S'Turkish Airlines'
p4176
sba(iflightmod
Flight
p4177
(dp4178
g3
S'Munich'
p4179
sg5
I1383894300
sg6
S'EN8200'
p4180
sg8
I1383890700
sg9
S'E190'
p4181
sg11
S'Air Dolomiti'
p4182
sba(iflightmod
Flight
p4183
(dp4184
g3
S'London'
p4185
sg5
I1383907800
sg6
S'BA578'
p4186
sg8
I1383900300
sg9
S'A319'
p4187
sg11
S'British Airways'
p4188
sba(iflightmod
Flight
p4189
(dp4190
g3
S'Zurich'
p4191
sg5
I1383896400
sg6
S'LX1660'
p4192
sg8
I1383892200
sg9
S'RJ1H'
p4193
sg11
S'Swiss'
p4194
sba(iflightmod
Flight
p4195
(dp4196
g3
S'Moscow'
p4197
sg5
I1383907800
sg6
S'SU2596'
p4198
sg8
I1383895500
sg9
S'A320'
p4199
sg11
S'Aeroflot'
p4200
sba(iflightmod
Flight
p4201
(dp4202
g3
S'Paris'
p4203
sg5
I1383908400
sg6
S'AF1426'
p4204
sg8
I1383902400
sg9
S'A318'
p4205
sg11
S'Air France'
p4206
sba(iflightmod
Flight
p4207
(dp4208
g3
S'Barcelona'
p4209
sg5
I1383909600
sg6
S'VY6400'
p4210
sg8
I1383903300
sg9
S'A320'
p4211
sg11
S'Vueling'
p4212
sba(iflightmod
Flight
p4213
(dp4214
g3
S'Rome'
p4215
sg5
I1383899100
sg6
S'AZ1471'
p4216
sg8
I1383895200
sg9
S'A319'
p4217
sg11
S'Alitalia'
p4218
sba(iflightmod
Flight
p4219
(dp4220
g3
S'Marseille'
p4221
sg5
I1383910200
sg6
S'AF4332'
p4222
sg8
I1383905700
sg9
S'A319'
p4223
sg11
S'Air France'
p4224
sba(iflightmod
Flight
p4225
(dp4226
g3
S'Munich'
p4227
sg5
I1383910200
sg6
S'EN8202'
p4228
sg8
I1383906600
sg9
S'E95'
p4229
sg11
S'Air Dolomiti'
p4230
sba(iflightmod
Flight
p4231
(dp4232
g3
S'Lyon'
p4233
sg5
I1383902100
sg6
S'A54522'
p4234
sg8
I1383897300
sg9
S'CRJ7'
p4235
sg11
S'HOP!'
p4236
sba(iflightmod
Flight
p4237
(dp4238
g3
S'Vienna'
p4239
sg5
I1383902400
sg6
S'OS521'
p4240
sg8
I1383898200
sg9
S'DH8D'
p4241
sg11
S'Austrian Airlines'
p4242
sba(iflightmod
Flight
p4243
(dp4244
g3
S'Dusseldorf'
p4245
sg5
I1383910500
sg6
S'AB8862'
p4246
sg8
I1383904200
sg9
S'DH4'
p4247
sg11
S'Air Berlin'
p4248
sba(iflightmod
Flight
p4249
(dp4250
g3
S'Istanbul'
p4251
sg5
I1383913200
sg6
S'TK1871'
p4252
sg8
I1383904200
sg9
S'B738'
p4253
sg11
S'Turkish Airlines'
p4254
sba(iflightmod
Flight
p4255
(dp4256
g3
S'Rome'
p4257
sg5
I1383914100
sg6
S'AZ1465'
p4258
sg8
I1383910200
sg9
S'A319'
p4259
sg11
S'Alitalia'
p4260
sba(iflightmod
Flight
p4261
(dp4262
g3
S'Frankfurt'
p4263
sg5
I1383914100
sg6
S'LH328'
p4264
sg8
I1383909300
sg9
S'A320'
p4265
sg11
S'Lufthansa'
p4266
sba(iflightmod
Flight
p4267
(dp4268
g3
S'Doha'
p4269
sg5
I1383914400
sg6
S'QR129'
p4270
sg8
I1383890700
sg9
S'A320'
p4271
sg11
S'Qatar Airways'
p4272
sba(iflightmod
Flight
p4273
(dp4274
g3
S'Munich'
p4275
sg5
I1383910200
sg6
S'EN8202'
p4276
sg8
I1383906600
sg9
S'E190'
p4277
sg11
S'Air Dolomiti'
p4278
sba(iflightmod
Flight
p4279
(dp4280
g3
S'Dusseldorf'
p4281
sg5
I1383910500
sg6
S'AB8862'
p4282
sg8
I1383904200
sg9
S'DH8D'
p4283
sg11
S'Air Berlin'
p4284
sba(iflightmod
Flight
p4285
(dp4286
g3
S'Dubai'
p4287
sg5
I1383914700
sg6
S'EK135'
p4288
sg8
I1383890700
sg9
S'B77W'
p4289
sg11
S'Emirates'
p4290
sba(iflightmod
Flight
p4291
(dp4292
g3
S'Zurich'
p4293
sg5
I1383915600
sg6
S'LX1662'
p4294
sg8
I1383911700
sg9
S'A320'
p4295
sg11
S'Swiss'
p4296
sba(iflightmod
Flight
p4297
(dp4298
g3
S'Paris'
p4299
sg5
I1383915900
sg6
S'U23793'
p4300
sg8
I1383909900
sg9
S'A319'
p4301
sg11
S'EasyJet'
p4302
sba(iflightmod
Flight
p4303
(dp4304
g3
S'Berlin'
p4305
sg5
I1383916500
sg6
S'AB8990'
p4306
sg8
I1383910800
sg9
S'73G'
p4307
sg11
S'Air Berlin'
p4308
sba(iflightmod
Flight
p4309
(dp4310
g3
S'London'
p4311
sg5
I1383916800
sg6
S'BA8479'
p4312
sg8
I1383909300
sg9
S'E170'
p4313
sg11
S'British Airways'
p4314
sba(iflightmod
Flight
p4315
(dp4316
g3
S'Prague'
p4317
sg5
I1383917700
sg6
S'AP753'
p4318
sg8
I1383912600
sg9
S'A320'
p4319
sg11
S'Air One'
p4320
sba(iflightmod
Flight
p4321
(dp4322
g3
S'Paris'
p4323
sg5
I1383918000
sg6
S'AF1726'
p4324
sg8
I1383912000
sg9
S'A319'
p4325
sg11
S'Air France'
p4326
sba(iflightmod
Flight
p4327
(dp4328
g3
S'Palermo'
p4329
sg5
I1383918300
sg6
S'V71219'
p4330
sg8
I1383912600
sg9
S'B717'
p4331
sg11
S'Volotea'
p4332
sba(iflightmod
Flight
p4333
(dp4334
g3
S'Naples'
p4335
sg5
I1383919800
sg6
S'U2995'
p4336
sg8
I1383915300
sg9
S'A319'
p4337
sg11
S'EasyJet'
p4338
sba(iflightmod
Flight
p4339
(dp4340
g3
S'London'
p4341
sg5
I1383920700
sg6
S'BA2584'
p4342
sg8
I1383913500
sg9
S'B734'
p4343
sg11
S'British Airways'
p4344
sba(iflightmod
Flight
p4345
(dp4346
g3
S'Rome'
p4347
sg5
I1383921600
sg6
S'AZ1475'
p4348
sg8
I1383917700
sg9
S'A320'
p4349
sg11
S'Alitalia'
p4350
sba(iflightmod
Flight
p4351
(dp4352
g3
S'Tunis'
p4353
sg5
I1383921600
sg6
S'TU472'
p4354
sg8
I1383915600
sg9
S'32A'
p4355
sg11
S'Tunisair'
p4356
sba(iflightmod
Flight
p4357
(dp4358
g3
S'Geneva'
p4359
sg5
I1383921900
sg6
S'U21327'
p4360
sg8
I1383917400
sg9
S'A319'
p4361
sg11
S'EasyJet'
p4362
sba(iflightmod
Flight
p4363
(dp4364
g3
S'Southend'
p4365
sg5
I1383922500
sg6
S'U27397'
p4366
sg8
I1383915300
sg9
S'A319'
p4367
sg11
S'EasyJet'
p4368
sba(iflightmod
Flight
p4369
(dp4370
g3
S'Cologne'
p4371
sg5
I1383924900
sg6
S'4U814'
p4372
sg8
I1383919500
sg9
S'A319'
p4373
sg11
S'Germanwings'
p4374
sba(iflightmod
Flight
p4375
(dp4376
g3
S'Munich'
p4377
sg5
I1383924900
sg6
S'EN8204'
p4378
sg8
I1383921300
sg9
S'E95'
p4379
sg11
S'Air Dolomiti'
p4380
sba(iflightmod
Flight
p4381
(dp4382
g3
S'Lyon'
p4383
sg5
I1383925800
sg6
S'A54526'
p4384
sg8
I1383921000
sg9
S'CR7'
p4385
sg11
S'HOP!'
p4386
sba(iflightmod
Flight
p4387
(dp4388
g3
S'Amsterdam'
p4389
sg5
I1383926100
sg6
S'KL1655'
p4390
sg8
I1383919800
sg9
S'B737'
p4391
sg11
S'KLM'
p4392
sba(iflightmod
Flight
p4393
(dp4394
g3
S'Berlin'
p4395
sg5
I1383993600
sg6
S'U24651'
p4396
sg8
I1383987300
sg9
S'A319'
p4397
sg11
S'EasyJet'
p4398
sba(iflightmod
Flight
p4399
(dp4400
g3
S'Amsterdam'
p4401
sg5
I1383993900
sg6
S'KL1653'
p4402
sg8
I1383987300
sg9
S'B737'
p4403
sg11
S'KLM'
p4404
sba(iflightmod
Flight
p4405
(dp4406
g3
S'Brussels'
p4407
sg5
I1383993900
sg6
S'SN3201'
p4408
sg8
I1383987900
sg9
S'A319'
p4409
sg11
S'Brussels Airlines'
p4410
sba(iflightmod
Flight
p4411
(dp4412
g3
S'London'
p4413
sg5
I1383993900
sg6
S'U25263'
p4414
sg8
I1383986400
sg9
S'A319'
p4415
sg11
S'EasyJet'
p4416
sba(iflightmod
Flight
p4417
(dp4418
g3
S'Lisbon'
p4419
sg5
I1383993900
sg6
S'TP874'
p4420
sg8
I1383983400
sg9
S'A319'
p4421
sg11
S'TAP Portugal'
p4422
sba(iflightmod
Flight
p4423
(dp4424
g3
S'Frankfurt'
p4425
sg5
I1383994200
sg6
S'LH326'
p4426
sg8
I1383989400
sg9
S'A321'
p4427
sg11
S'Lufthansa'
p4428
sba(iflightmod
Flight
p4429
(dp4430
g3
S'London'
p4431
sg5
I1383994200
sg6
S'BA578'
p4432
sg8
I1383986700
sg9
S'A319'
p4433
sg11
S'British Airways'
p4434
sba(iflightmod
Flight
p4435
(dp4436
g3
S'Moscow'
p4437
sg5
I1383994200
sg6
S'SU2596'
p4438
sg8
I1383981900
sg9
S'A320'
p4439
sg11
S'Aeroflot'
p4440
sba(iflightmod
Flight
p4441
(dp4442
g3
S'Munich'
p4443
sg5
I1383994500
sg6
S'EN8202'
p4444
sg8
I1383990900
sg9
S'E190'
p4445
sg11
S'Air Dolomiti'
p4446
sba(iflightmod
Flight
p4447
(dp4448
g3
S'Paris'
p4449
sg5
I1383994800
sg6
S'AF1426'
p4450
sg8
I1383988800
sg9
S'A321'
p4451
sg11
S'Air France'
p4452
sba(iflightmod
Flight
p4453
(dp4454
g3
S'Barcelona'
p4455
sg5
I1383996000
sg6
S'VY6400'
p4456
sg8
I1383989700
sg9
S'A320'
p4457
sg11
S'Vueling'
p4458
sba(iflightmod
Flight
p4459
(dp4460
g3
S'Paris'
p4461
sg5
I1383998100
sg6
S'U23793'
p4462
sg8
I1383992100
sg9
S'A319'
p4463
sg11
S'EasyJet'
p4464
sba(iflightmod
Flight
p4465
(dp4466
g3
S'Istanbul'
p4467
sg5
I1383999600
sg6
S'TK1871'
p4468
sg8
I1383990600
sg9
S'B738'
p4469
sg11
S'Turkish Airlines'
p4470
sba(iflightmod
Flight
p4471
(dp4472
g3
S'Frankfurt'
p4473
sg5
I1384000500
sg6
S'LH328'
p4474
sg8
I1383995700
sg9
S'A320'
p4475
sg11
S'Lufthansa'
p4476
sba(iflightmod
Flight
p4477
(dp4478
g3
S'Doha'
p4479
sg5
I1384000800
sg6
S'QR129'
p4480
sg8
I1383977100
sg9
S'A320'
p4481
sg11
S'Qatar Airways'
p4482
sba(iflightmod
Flight
p4483
(dp4484
g3
S'Dubai'
p4485
sg5
I1384001100
sg6
S'EK135'
p4486
sg8
I1383977100
sg9
S'B77W'
p4487
sg11
S'Emirates'
p4488
sba(iflightmod
Flight
p4489
(dp4490
g3
S'Paris'
p4491
sg5
I1384001100
sg6
S'U24293'
p4492
sg8
I1383995100
sg9
S'A320'
p4493
sg11
S'EasyJet'
p4494
sba(iflightmod
Flight
p4495
(dp4496
g3
S'Zurich'
p4497
sg5
I1384002000
sg6
S'LX1662'
p4498
sg8
I1383998100
sg9
S'A319'
p4499
sg11
S'Swiss'
p4500
sba(iflightmod
Flight
p4501
(dp4502
g3
S'Bari'
p4503
sg5
I1384002600
sg6
S'V71235'
p4504
sg8
I1383997800
sg9
S'B717'
p4505
sg11
S'Volotea'
p4506
sba(iflightmod
Flight
p4507
(dp4508
g3
S'Paris'
p4509
sg5
I1384004400
sg6
S'AF1726'
p4510
sg8
I1383998400
sg9
S'A319'
p4511
sg11
S'Air France'
p4512
sba(iflightmod
Flight
p4513
(dp4514
g3
S'Moscow'
p4515
sg5
I1384006200
sg6
S'UN393'
p4516
sg8
I1383994200
sg9
S'B738'
p4517
sg11
S'Transaero Airlines'
p4518
sba(iflightmod
Flight
p4519
(dp4520
g3
S'London'
p4521
sg5
I1384006800
sg6
S'BA2584'
p4522
sg8
I1383999600
sg9
S'B734'
p4523
sg11
S'British Airways'
p4524
sba(iflightmod
Flight
p4525
(dp4526
g3
S'Palermo'
p4527
sg5
I1384006800
sg6
S'AP735'
p4528
sg8
I1384001400
sg9
S'A320'
p4529
sg11
S'Air One'
p4530
sba(iflightmod
Flight
p4531
(dp4532
g3
S'Rome'
p4533
sg5
I1384008000
sg6
S'AZ1475'
p4534
sg8
I1384004100
sg9
S'A320'
p4535
sg11
S'Alitalia'
p4536
sba(iflightmod
Flight
p4537
(dp4538
g3
S'Marseille'
p4539
sg5
I1384009500
sg6
S'AF4332'
p4540
sg8
I1384005000
sg9
S'A319'
p4541
sg11
S'Air France'
p4542
sba(iflightmod
Flight
p4543
(dp4544
g3
S'London'
p4545
sg5
I1384010400
sg6
S'U25267'
p4546
sg8
I1384002900
sg9
S'A319'
p4547
sg11
S'EasyJet'
p4548
sba(iflightmod
Flight
p4549
(dp4550
g3
S'Munich'
p4551
sg5
I1384011300
sg6
S'EN8204'
p4552
sg8
I1384007700
sg9
S'E95'
p4553
sg11
S'Air Dolomiti'
p4554
sba(iflightmod
Flight
p4555
(dp4556
g3
S'Amsterdam'
p4557
sg5
I1384012500
sg6
S'KL1655'
p4558
sg8
I1384006200
sg9
S'73J'
p4559
sg11
S'KLM'
p4560
sba(iflightmod
Flight
p4561
(dp4562
g3
S'Paris'
p4563
sg5
I1384014900
sg6
S'AF1226'
p4564
sg8
I1384008900
sg9
S'A320'
p4565
sg11
S'Air France'
p4566
sba(iflightmod
Flight
p4567
(dp4568
g3
S'Istanbul'
p4569
sg5
I1384016400
sg6
S'TK1869'
p4570
sg8
I1384007100
sg9
S'A320'
p4571
sg11
S'Turkish Airlines'
p4572
sba(iflightmod
Flight
p4573
(dp4574
g3
S'Naples'
p4575
sg5
I1384016400
sg6
S'U2997'
p4576
sg8
I1384011900
sg9
S'A319'
p4577
sg11
S'EasyJet'
p4578
sba(iflightmod
Flight
p4579
(dp4580
g3
S'Frankfurt'
p4581
sg5
I1384017000
sg6
S'LH330'
p4582
sg8
I1384012200
sg9
S'32A'
p4583
sg11
S'Lufthansa'
p4584
sba(iflightmod
Flight
p4585
(dp4586
g3
S'Vienna'
p4587
sg5
I1384018200
sg6
S'OS529'
p4588
sg8
I1384014000
sg9
S'DH4'
p4589
sg11
S'Austrian Airlines'
p4590
sba(iflightmod
Flight
p4591
(dp4592
g3
S'Zurich'
p4593
sg5
I1384019400
sg6
S'LX1664'
p4594
sg8
I1384015200
sg9
S'AR1'
p4595
sg11
S'Swiss'
p4596
sba(iflightmod
Flight
p4597
(dp4598
g3
S'Rome'
p4599
sg5
I1384020300
sg6
S'AZ1467'
p4600
sg8
I1384016400
sg9
S'E75'
p4601
sg11
S'Alitalia'
p4602
sba(iflightmod
Flight
p4603
(dp4604
g3
S'Copenhagen'
p4605
sg5
I1384020600
sg6
S'SK2691'
p4606
sg8
I1384013400
sg9
S'CR9'
p4607
sg11
S'SAS'
p4608
sba(iflightmod
Flight
p4609
(dp4610
g3
S'Bari'
p4611
sg5
I1384002600
sg6
S'V71235'
p4612
sg8
I1383997800
sg9
S'B712'
p4613
sg11
S'Volotea'
p4614
sba(iflightmod
Flight
p4615
(dp4616
g3
S'London'
p4617
sg5
I1384020600
sg6
S'BA2586'
p4618
sg8
I1384013700
sg9
S'B734'
p4619
sg11
S'British Airways'
p4620
sba(iflightmod
Flight
p4621
(dp4622
g3
S'Madrid'
p4623
sg5
I1384020900
sg6
S'IB3246'
p4624
sg8
I1384012200
sg9
S'A321'
p4625
sg11
S'Iberia'
p4626
sba(iflightmod
Flight
p4627
(dp4628
g3
S'Paris'
p4629
sg5
I1384021200
sg6
S'U24295'
p4630
sg8
I1384015200
sg9
S'A320'
p4631
sg11
S'EasyJet'
p4632
sba(iflightmod
Flight
p4633
(dp4634
g3
S'Lamezia Terme'
p4635
sg5
I1384022400
sg6
S'AP729'
p4636
sg8
I1384017000
sg9
S'A320'
p4637
sg11
S'Air One'
p4638
sba(iflightmod
Flight
p4639
(dp4640
g3
S'Vienna'
p4641
sg5
I1384029900
sg6
S'OS527'
p4642
sg8
I1384025700
sg9
S'DH4'
p4643
sg11
S'Austrian Airlines'
p4644
sba(iflightmod
Flight
p4645
(dp4646
g3
S'Moscow'
p4647
sg5
I1384030800
sg6
S'SU2422'
p4648
sg8
I1384018500
sg9
S'A320'
p4649
sg11
S'Aeroflot'
p4650
sba(iflightmod
Flight
p4651
(dp4652
g3
S'Paris'
p4653
sg5
I1384031400
sg6
S'AF1326'
p4654
sg8
I1384025400
sg9
S'A320'
p4655
sg11
S'Air France'
p4656
sba(iflightmod
Flight
p4657
(dp4658
g3
S'Amsterdam'
p4659
sg5
I1384032000
sg6
S'KL1659'
p4660
sg8
I1384025700
sg9
S'B738'
p4661
sg11
S'KLM'
p4662
sba(iflightmod
Flight
p4663
(dp4664
g3
S'Rome'
p4665
sg5
I1384032300
sg6
S'AZ1473'
p4666
sg8
I1384028400
sg9
S'A320'
p4667
sg11
S'Alitalia'
p4668
sba(iflightmod
Flight
p4669
(dp4670
g3
S'Amsterdam'
p4671
sg5
I1384012500
sg6
S'KL1655'
p4672
sg8
I1384006200
sg9
S'B738'
p4673
sg11
S'KLM'
p4674
sba(iflightmod
Flight
p4675
(dp4676
g3
S'Munich'
p4677
sg5
I1384032300
sg6
S'EN8206'
p4678
sg8
I1384028700
sg9
S'E95'
p4679
sg11
S'Air Dolomiti'
p4680
sba(iflightmod
Flight
p4681
(dp4682
g3
S'Frankfurt'
p4683
sg5
I1384035300
sg6
S'LH332'
p4684
sg8
I1384030500
sg9
S'A321'
p4685
sg11
S'Lufthansa'
p4686
sba(iflightmod
Flight
p4687
(dp4688
g3
S'Tirana'
p4689
sg5
I1384064700
sg6
S'LZ675'
p4690
sg8
I1384059600
sg9
S'A319'
p4691
sg11
S'Belle Air'
p4692
sba(iflightmod
Flight
p4693
(dp4694
g3
S'Zurich'
p4695
sg5
I1384069200
sg6
S'LX1660'
p4696
sg8
I1384065000
sg9
S'AR1'
p4697
sg11
S'Swiss'
p4698
sba(iflightmod
Flight
p4699
(dp4700
g3
S'Paris'
p4701
sg5
I1384070400
sg6
S'AF1126'
p4702
sg8
I1384064400
sg9
S'A320'
p4703
sg11
S'Air France'
p4704
sba(iflightmod
Flight
p4705
(dp4706
g3
S'Naples'
p4707
sg5
I1384071300
sg6
S'U2993'
p4708
sg8
I1384066500
sg9
S'A319'
p4709
sg11
S'EasyJet'
p4710
sba(iflightmod
Flight
p4711
(dp4712
g3
S'Frankfurt'
p4713
sg5
I1384017000
sg6
S'LH330'
p4714
sg8
I1384012200
sg9
S'A320'
p4715
sg11
S'Lufthansa'
p4716
sba(iflightmod
Flight
p4717
(dp4718
g3
S'Philadelphia'
p4719
sg5
I1384071300
sg6
S'US714'
p4720
sg8
I1384040700
sg9
S'B762'
p4721
sg11
S'US Airways'
p4722
sba(iflightmod
Flight
p4723
(dp4724
g3
S'Istanbul'
p4725
sg5
I1384071900
sg6
S'TK1867'
p4726
sg8
I1384062900
sg9
S'A321'
p4727
sg11
S'Turkish Airlines'
p4728
sba(iflightmod
Flight
p4729
(dp4730
g3
S'Vienna'
p4731
sg5
I1384018200
sg6
S'OS529'
p4732
sg8
I1384014000
sg9
S'DH8D'
p4733
sg11
S'Austrian Airlines'
p4734
sba(iflightmod
Flight
p4735
(dp4736
g3
S'Copenhagen'
p4737
sg5
I1384020600
sg6
S'SK2691'
p4738
sg8
I1384013400
sg9
S'CRJ9'
p4739
sg11
S'SAS'
p4740
sba(iflightmod
Flight
p4741
(dp4742
g3
S'Zurich'
p4743
sg5
I1384019400
sg6
S'LX1664'
p4744
sg8
I1384015200
sg9
S'RJ1H'
p4745
sg11
S'Swiss'
p4746
sba(iflightmod
Flight
p4747
(dp4748
g3
S'Paris'
p4749
sg5
I1384074300
sg6
S'U24291'
p4750
sg8
I1384068300
sg9
S'A320'
p4751
sg11
S'EasyJet'
p4752
sba(iflightmod
Flight
p4753
(dp4754
g3
S'Rome'
p4755
sg5
I1384020300
sg6
S'AZ1467'
p4756
sg8
I1384016400
sg9
S'E170'
p4757
sg11
S'Alitalia'
p4758
sba(iflightmod
Flight
p4759
(dp4760
g3
S'Vienna'
p4761
sg5
I1384075200
sg6
S'OS521'
p4762
sg8
I1384071000
sg9
S'DH4'
p4763
sg11
S'Austrian Airlines'
p4764
sba(iflightmod
Flight
p4765
(dp4766
g3
S'Frankfurt'
p4767
sg5
I1384075500
sg6
S'LH324'
p4768
sg8
I1384070700
sg9
S'32A'
p4769
sg11
S'Lufthansa'
p4770
sba(iflightmod
Flight
p4771
(dp4772
g3
S'Catania'
p4773
sg5
I1384076100
sg6
S'AP870'
p4774
sg8
I1384070100
sg9
S'A320'
p4775
sg11
S'Air One'
p4776
sba(iflightmod
Flight
p4777
(dp4778
g3
S'London'
p4779
sg5
I1384077000
sg6
S'BA2582'
p4780
sg8
I1384069500
sg9
S'B734'
p4781
sg11
S'British Airways'
p4782
sba(iflightmod
Flight
p4783
(dp4784
g3
S'Rome'
p4785
sg5
I1384078500
sg6
S'AZ1463'
p4786
sg8
I1384074600
sg9
S'A320'
p4787
sg11
S'Alitalia'
p4788
sba(iflightmod
Flight
p4789
(dp4790
g3
S'Manchester'
p4791
sg5
I1384078500
sg6
S'U21863'
p4792
sg8
I1384069500
sg9
S'A319'
p4793
sg11
S'EasyJet'
p4794
sba(iflightmod
Flight
p4795
(dp4796
g3
S'Madrid'
p4797
sg5
I1384078800
sg6
S'IB3242'
p4798
sg8
I1384069800
sg9
S'A321'
p4799
sg11
S'Iberia'
p4800
sba(iflightmod
Flight
p4801
(dp4802
g3
S'Marseille'
p4803
sg5
I1384080000
sg6
S'AF4332'
p4804
sg8
I1384075500
sg9
S'A319'
p4805
sg11
S'Air France'
p4806
sba(iflightmod
Flight
p4807
(dp4808
g3
S'Amsterdam'
p4809
sg5
I1384080300
sg6
S'KL1653'
p4810
sg8
I1384073700
sg9
S'B737'
p4811
sg11
S'KLM'
p4812
sba(iflightmod
Flight
p4813
(dp4814
g3
S'Brussels'
p4815
sg5
I1384080300
sg6
S'SN3201'
p4816
sg8
I1384074300
sg9
S'AR1'
p4817
sg11
S'Brussels Airlines'
p4818
sba(iflightmod
Flight
p4819
(dp4820
g3
S'Frankfurt'
p4821
sg5
I1384080600
sg6
S'LH326'
p4822
sg8
I1384075800
sg9
S'A321'
p4823
sg11
S'Lufthansa'
p4824
sba(iflightmod
Flight
p4825
(dp4826
g3
S'Vienna'
p4827
sg5
I1384029900
sg6
S'OS527'
p4828
sg8
I1384025700
sg9
S'DH8D'
p4829
sg11
S'Austrian Airlines'
p4830
sba(iflightmod
Flight
p4831
(dp4832
g3
S'Casablanca'
p4833
sg5
I1384182300
sg6
S'3O2475'
p4834
sg8
I1384167600
sg9
S'A320'
p4835
sg11
S'Air Arabia Maroc'
p4836
sba(iflightmod
Flight
p4837
(dp4838
g3
S'Lisbon'
p4839
sg5
I1384183800
sg6
S'TP876'
p4840
sg8
I1384173000
sg9
S'A319'
p4841
sg11
S'TAP Portugal'
p4842
sba(iflightmod
Flight
p4843
(dp4844
g3
S'Munich'
p4845
sg5
I1384184100
sg6
S'EN8204'
p4846
sg8
I1384180500
sg9
S'E95'
p4847
sg11
S'Air Dolomiti'
p4848
sba(iflightmod
Flight
p4849
(dp4850
g3
S'Cologne'
p4851
sg5
I1384184700
sg6
S'4U814'
p4852
sg8
I1384179300
sg9
S'A319'
p4853
sg11
S'Germanwings'
p4854
sba(iflightmod
Flight
p4855
(dp4856
g3
S'Lyon'
p4857
sg5
I1384185000
sg6
S'A54526'
p4858
sg8
I1384180200
sg9
S'E145'
p4859
sg11
S'HOP!'
p4860
sba(iflightmod
Flight
p4861
(dp4862
g3
S'Amsterdam'
p4863
sg5
I1384185300
sg6
S'KL1655'
p4864
sg8
I1384179000
sg9
S'B738'
p4865
sg11
S'KLM'
p4866
sba(iflightmod
Flight
p4867
(dp4868
g3
S'Brussels'
p4869
sg5
I1384187100
sg6
S'SN3205'
p4870
sg8
I1384181100
sg9
S'RJ1H'
p4871
sg11
S'Brussels Airlines'
p4872
sba(iflightmod
Flight
p4873
(dp4874
g3
S'London'
p4875
sg5
I1384187400
sg6
S'U25267'
p4876
sg8
I1384179900
sg9
S'A319'
p4877
sg11
S'EasyJet'
p4878
sba(iflightmod
Flight
p4879
(dp4880
g3
S'Paris'
p4881
sg5
I1384187700
sg6
S'AF1226'
p4882
sg8
I1384181700
sg9
S'A320'
p4883
sg11
S'Air France'
p4884
sba(iflightmod
Flight
p4885
(dp4886
g3
S'Istanbul'
p4887
sg5
I1384189200
sg6
S'TK1869'
p4888
sg8
I1384179900
sg9
S'A320'
p4889
sg11
S'Turkish Airlines'
p4890
sba(iflightmod
Flight
p4891
(dp4892
g3
S'Frankfurt'
p4893
sg5
I1384189800
sg6
S'LH330'
p4894
sg8
I1384185000
sg9
S'A320'
p4895
sg11
S'Lufthansa'
p4896
sba(iflightmod
Flight
p4897
(dp4898
g3
S'Madrid'
p4899
sg5
I1384190100
sg6
S'IB3244'
p4900
sg8
I1384181400
sg9
S'A321'
p4901
sg11
S'Iberia'
p4902
sba(iflightmod
Flight
p4903
(dp4904
g3
S'Vienna'
p4905
sg5
I1384191000
sg6
S'OS529'
p4906
sg8
I1384186800
sg9
S'DH4'
p4907
sg11
S'Austrian Airlines'
p4908
sba(iflightmod
Flight
p4909
(dp4910
g3
S'London'
p4911
sg5
I1384192200
sg6
S'BA2586'
p4912
sg8
I1384185300
sg9
S'B734'
p4913
sg11
S'British Airways'
p4914
sba(iflightmod
Flight
p4915
(dp4916
g3
S'Naples'
p4917
sg5
I1384192200
sg6
S'U2997'
p4918
sg8
I1384187700
sg9
S'A319'
p4919
sg11
S'EasyJet'
p4920
sba(iflightmod
Flight
p4921
(dp4922
g3
S'Zurich'
p4923
sg5
I1384192200
sg6
S'LX1664'
p4924
sg8
I1384188000
sg9
S'F100'
p4925
sg11
S'Swiss'
p4926
sba(iflightmod
Flight
p4927
(dp4928
g3
S'Palermo'
p4929
sg5
I1384192500
sg6
S'AP735'
p4930
sg8
I1384187100
sg9
S'A320'
p4931
sg11
S'Air One'
p4932
sba(iflightmod
Flight
p4933
(dp4934
g3
S'Rome'
p4935
sg5
I1384193100
sg6
S'AZ1467'
p4936
sg8
I1384189200
sg9
S'E75'
p4937
sg11
S'Alitalia'
p4938
sba(iflightmod
Flight
p4939
(dp4940
g3
S'Nice'
p4941
sg5
I1384193400
sg6
S'U21651'
p4942
sg8
I1384188600
sg9
S'A319'
p4943
sg11
S'EasyJet'
p4944
sba(iflightmod
Flight
p4945
(dp4946
g3
S'Paris'
p4947
sg5
I1384194000
sg6
S'U24295'
p4948
sg8
I1384188000
sg9
S'A320'
p4949
sg11
S'EasyJet'
p4950
sba(iflightmod
Flight
p4951
(dp4952
g3
S'Barcelona'
p4953
sg5
I1384195500
sg6
S'VY6402'
p4954
sg8
I1384189200
sg9
S'A320'
p4955
sg11
S'Vueling'
p4956
sba(iflightmod
Flight
p4957
(dp4958
g3
S'Paris'
p4959
sg5
I1384198200
sg6
S'U23795'
p4960
sg8
I1384192200
sg9
S'A319'
p4961
sg11
S'EasyJet'
p4962
sba(iflightmod
Flight
p4963
(dp4964
g3
S'Rome'
p4965
sg5
I1384201500
sg6
S'AZ1483'
p4966
sg8
I1384197600
sg9
S'A320'
p4967
sg11
S'Alitalia'
p4968
sba(iflightmod
Flight
p4969
(dp4970
g3
S'Vienna'
p4971
sg5
I1384202700
sg6
S'OS527'
p4972
sg8
I1384198500
sg9
S'DH4'
p4973
sg11
S'Austrian Airlines'
p4974
sba(iflightmod
Flight
p4975
(dp4976
g3
S'Moscow'
p4977
sg5
I1384203600
sg6
S'SU2422'
p4978
sg8
I1384191300
sg9
S'A320'
p4979
sg11
S'Aeroflot'
p4980
sba(iflightmod
Flight
p4981
(dp4982
g3
S'Paris'
p4983
sg5
I1384204200
sg6
S'AF1326'
p4984
sg8
I1384198200
sg9
S'A318'
p4985
sg11
S'Air France'
p4986
sba(iflightmod
Flight
p4987
(dp4988
g3
S'Amsterdam'
p4989
sg5
I1384204800
sg6
S'KL1659'
p4990
sg8
I1384198500
sg9
S'B737'
p4991
sg11
S'KLM'
p4992
sba(iflightmod
Flight
p4993
(dp4994
g3
S'Rome'
p4995
sg5
I1384205100
sg6
S'AZ1473'
p4996
sg8
I1384201200
sg9
S'32S'
p4997
sg11
S'Alitalia'
p4998
sba(iflightmod
Flight
p4999
(dp5000
g3
S'Munich'
p5001
sg5
I1384205100
sg6
S'EN8206'
p5002
sg8
I1384201500
sg9
S'E95'
p5003
sg11
S'Air Dolomiti'
p5004
sba(iflightmod
Flight
p5005
(dp5006
g3
S'Brussels'
p5007
sg5
I1384205700
sg6
S'SN3207'
p5008
sg8
I1384199400
sg9
S'AR1'
p5009
sg11
S'Brussels Airlines'
p5010
sba(iflightmod
Flight
p5011
(dp5012
g3
S'Bari'
p5013
sg5
I1384206000
sg6
S'V71235'
p5014
sg8
I1384201200
sg9
S'B717'
p5015
sg11
S'Volotea'
p5016
sba(iflightmod
Flight
p5017
(dp5018
g3
S'Vienna'
p5019
sg5
I1384191000
sg6
S'OS529'
p5020
sg8
I1384186800
sg9
S'DH8D'
p5021
sg11
S'Austrian Airlines'
p5022
sba(iflightmod
Flight
p5023
(dp5024
g3
S'Frankfurt'
p5025
sg5
I1384207800
sg6
S'LH332'
p5026
sg8
I1384203000
sg9
S'32A'
p5027
sg11
S'Lufthansa'
p5028
sba(iflightmod
Flight
p5029
(dp5030
g3
S'Catania'
p5031
sg5
I1384208700
sg6
S'AP872'
p5032
sg8
I1384202700
sg9
S'A320'
p5033
sg11
S'Air One'
p5034
sba(iflightmod
Flight
p5035
(dp5036
g3
S'Munich'
p5037
sg5
I1384239900
sg6
S'EN8200'
p5038
sg8
I1384236300
sg9
S'E95'
p5039
sg11
S'Air Dolomiti'
p5040
sba(iflightmod
Flight
p5041
(dp5042
g3
S'Zurich'
p5043
sg5
I1384242000
sg6
S'LX1660'
p5044
sg8
I1384237800
sg9
S'AR1'
p5045
sg11
S'Swiss'
p5046
sba(iflightmod
Flight
p5047
(dp5048
g3
S'Paris'
p5049
sg5
I1384243200
sg6
S'AF1126'
p5050
sg8
I1384237200
sg9
S'A319'
p5051
sg11
S'Air France'
p5052
sba(iflightmod
Flight
p5053
(dp5054
g3
S'Rome'
p5055
sg5
I1384193100
sg6
S'AZ1467'
p5056
sg8
I1384189200
sg9
S'E170'
p5057
sg11
S'Alitalia'
p5058
sba(iflightmod
Flight
p5059
(dp5060
g3
S'Paris'
p5061
sg5
I1384243200
sg6
S'U24291'
p5062
sg8
I1384237200
sg9
S'A320'
p5063
sg11
S'EasyJet'
p5064
sba(iflightmod
Flight
p5065
(dp5066
g3
S'Philadelphia'
p5067
sg5
I1384244100
sg6
S'US714'
p5068
sg8
I1384213500
sg9
S'B762'
p5069
sg11
S'US Airways'
p5070
sba(iflightmod
Flight
p5071
(dp5072
g3
S'Rome'
p5073
sg5
I1384244700
sg6
S'AZ1471'
p5074
sg8
I1384240800
sg9
S'E190'
p5075
sg11
S'Alitalia'
p5076
sba(iflightmod
Flight
p5077
(dp5078
g3
S'Istanbul'
p5079
sg5
I1384244700
sg6
S'TK1867'
p5080
sg8
I1384235700
sg9
S'A320'
p5081
sg11
S'Turkish Airlines'
p5082
sba(iflightmod
Flight
p5083
(dp5084
g3
S'Naples'
p5085
sg5
I1384246500
sg6
S'U2991'
p5086
sg8
I1384242000
sg9
S'A319'
p5087
sg11
S'EasyJet'
p5088
sba(iflightmod
Flight
p5089
(dp5090
g3
S'Vienna'
p5091
sg5
I1384202700
sg6
S'OS527'
p5092
sg8
I1384198500
sg9
S'DH8D'
p5093
sg11
S'Austrian Airlines'
p5094
sba(iflightmod
Flight
p5095
(dp5096
g3
S'Lyon'
p5097
sg5
I1384247700
sg6
S'A54522'
p5098
sg8
I1384242900
sg9
S'CR7'
p5099
sg11
S'HOP!'
p5100
sba(iflightmod
Flight
p5101
(dp5102
g3
S'Vienna'
p5103
sg5
I1384248000
sg6
S'OS521'
p5104
sg8
I1384243800
sg9
S'DH4'
p5105
sg11
S'Austrian Airlines'
p5106
sba(iflightmod
Flight
p5107
(dp5108
g3
S'Frankfurt'
p5109
sg5
I1384248300
sg6
S'LH324'
p5110
sg8
I1384243500
sg9
S'A320'
p5111
sg11
S'Lufthansa'
p5112
sba(iflightmod
Flight
p5113
(dp5114
g3
S'Reggio Calabria'
p5115
sg5
I1384249200
sg6
S'V71249'
p5116
sg8
I1384243500
sg9
S'B717'
p5117
sg11
S'Volotea'
p5118
sba(iflightmod
Flight
p5119
(dp5120
g3
S'London'
p5121
sg5
I1384249800
sg6
S'BA2582'
p5122
sg8
I1384242300
sg9
S'B734'
p5123
sg11
S'British Airways'
p5124
sba(iflightmod
Flight
p5125
(dp5126
g3
S'Munich'
p5127
sg5
I1384205100
sg6
S'EN8206'
p5128
sg8
I1384201500
sg9
S'E190'
p5129
sg11
S'Air Dolomiti'
p5130
sba(iflightmod
Flight
p5131
(dp5132
g3
S'Brussels'
p5133
sg5
I1384205700
sg6
S'SN3207'
p5134
sg8
I1384199400
sg9
S'RJ1H'
p5135
sg11
S'Brussels Airlines'
p5136
sba(iflightmod
Flight
p5137
(dp5138
g3
S'Lyon'
p5139
sg5
I1384250100
sg6
S'U24465'
p5140
sg8
I1384245600
sg9
S'A319'
p5141
sg11
S'EasyJet'
p5142
sba(iflightmod
Flight
p5143
(dp5144
g3
S'Dublin'
p5145
sg5
I1384250400
sg6
S'EI422'
p5146
sg8
I1384240800
sg9
S'A320'
p5147
sg11
S'Aer Lingus'
p5148
sba(iflightmod
Flight
p5149
(dp5150
g3
S'Bari'
p5151
sg5
I1384206000
sg6
S'V71235'
p5152
sg8
I1384201200
sg9
S'B712'
p5153
sg11
S'Volotea'
p5154
sba(iflightmod
Flight
p5155
(dp5156
g3
S'Frankfurt'
p5157
sg5
I1384207800
sg6
S'LH332'
p5158
sg8
I1384203000
sg9
S'A320'
p5159
sg11
S'Lufthansa'
p5160
sba(iflightmod
Flight
p5161
(dp5162
g3
S'Catania'
p5163
sg5
I1384251000
sg6
S'AP870'
p5164
sg8
I1384245000
sg9
S'A320'
p5165
sg11
S'Air One'
p5166
sba(iflightmod
Flight
p5167
(dp5168
g3
S'Rome'
p5169
sg5
I1384251300
sg6
S'AZ1463'
p5170
sg8
I1384247400
sg9
S'A320'
p5171
sg11
S'Alitalia'
p5172
sba(iflightmod
Flight
p5173
(dp5174
g3
S'Rome'
p5175
sg5
I1384205100
sg6
S'AZ1473'
p5176
sg8
I1384201200
sg9
S'A320'
p5177
sg11
S'Alitalia'
p5178
sba(iflightmod
Flight
p5179
(dp5180
g3
S'Madrid'
p5181
sg5
I1384251600
sg6
S'IB3242'
p5182
sg8
I1384242600
sg9
S'A321'
p5183
sg11
S'Iberia'
p5184
sba(iflightmod
Flight
p5185
(dp5186
g3
S'Toulouse'
p5187
sg5
I1384252500
sg6
S'AF4374'
p5188
sg8
I1384246500
sg9
S'A319'
p5189
sg11
S'Air France'
p5190
sba(iflightmod
Flight
p5191
(dp5192
g3
S'Berlin'
p5193
sg5
I1384252800
sg6
S'U24651'
p5194
sg8
I1384246500
sg9
S'A319'
p5195
sg11
S'EasyJet'
p5196
sba(iflightmod
Flight
p5197
(dp5198
g3
S'Amsterdam'
p5199
sg5
I1384253100
sg6
S'KL1653'
p5200
sg8
I1384246500
sg9
S'E190'
p5201
sg11
S'KLM'
p5202
sba(iflightmod
Flight
p5203
(dp5204
g3
S'Brussels'
p5205
sg5
I1384253100
sg6
S'SN3201'
p5206
sg8
I1384247100
sg9
S'AR1'
p5207
sg11
S'Brussels Airlines'
p5208
sba(iflightmod
Flight
p5209
(dp5210
g3
S'Lisbon'
p5211
sg5
I1384253100
sg6
S'TP874'
p5212
sg8
I1384242600
sg9
S'A319'
p5213
sg11
S'TAP Portugal'
p5214
sba(iflightmod
Flight
p5215
(dp5216
g3
S'Frankfurt'
p5217
sg5
I1384253400
sg6
S'LH326'
p5218
sg8
I1384248600
sg9
S'B733'
p5219
sg11
S'Lufthansa'
p5220
sba(iflightmod
Flight
p5221
(dp5222
g3
S'London'
p5223
sg5
I1384253400
sg6
S'BA578'
p5224
sg8
I1384245900
sg9
S'A319'
p5225
sg11
S'British Airways'
p5226
sba(iflightmod
Flight
p5227
(dp5228
g3
S'Munich'
p5229
sg5
I1384239900
sg6
S'EN8200'
p5230
sg8
I1384236300
sg9
S'E190'
p5231
sg11
S'Air Dolomiti'
p5232
sba(iflightmod
Flight
p5233
(dp5234
g3
S'Paris'
p5235
sg5
I1384243200
sg6
S'AF1126'
p5236
sg8
I1384237200
sg9
S'A320'
p5237
sg11
S'Air France'
p5238
sba(iflightmod
Flight
p5239
(dp5240
g3
S'Zurich'
p5241
sg5
I1384242000
sg6
S'LX1660'
p5242
sg8
I1384237800
sg9
S'RJ1H'
p5243
sg11
S'Swiss'
p5244
sba(iflightmod
Flight
p5245
(dp5246
g3
S'Rome'
p5247
sg5
I1384244700
sg6
S'AZ1471'
p5248
sg8
I1384240800
sg9
S'A320'
p5249
sg11
S'Alitalia'
p5250
sba(iflightmod
Flight
p5251
(dp5252
g3
S'Moscow'
p5253
sg5
I1384253400
sg6
S'SU2596'
p5254
sg8
I1384241100
sg9
S'A320'
p5255
sg11
S'Aeroflot'
p5256
sba(iflightmod
Flight
p5257
(dp5258
g3
S'Paris'
p5259
sg5
I1384254000
sg6
S'AF1426'
p5260
sg8
I1384248000
sg9
S'A318'
p5261
sg11
S'Air France'
p5262
sba(iflightmod
Flight
p5263
(dp5264
g3
S'Vienna'
p5265
sg5
I1384248000
sg6
S'OS521'
p5266
sg8
I1384243800
sg9
S'DH8D'
p5267
sg11
S'Austrian Airlines'
p5268
sba(iflightmod
Flight
p5269
(dp5270
g3
S'Reggio Calabria'
p5271
sg5
I1384249200
sg6
S'V71249'
p5272
sg8
I1384243500
sg9
S'B712'
p5273
sg11
S'Volotea'
p5274
sba(iflightmod
Flight
p5275
(dp5276
g3
S'Stuttgart'
p5277
sg5
I1384254600
sg6
S'AB8984'
p5278
sg8
I1384250400
sg9
S'DH4'
p5279
sg11
S'Air Berlin'
p5280
sba(iflightmod
Flight
p5281
(dp5282
g3
S'Barcelona'
p5283
sg5
I1384255200
sg6
S'VY6400'
p5284
sg8
I1384248900
sg9
S'A320'
p5285
sg11
S'Vueling'
p5286
sba(iflightmod
Flight
p5287
(dp5288
g3
S'Lyon'
p5289
sg5
I1384247700
sg6
S'A54522'
p5290
sg8
I1384242900
sg9
S'CRJ7'
p5291
sg11
S'HOP!'
p5292
sba(iflightmod
Flight
p5293
(dp5294
g3
S'Munich'
p5295
sg5
I1384255800
sg6
S'EN8202'
p5296
sg8
I1384252200
sg9
S'E95'
p5297
sg11
S'Air Dolomiti'
p5298
sba(iflightmod
Flight
p5299
(dp5300
g3
S'Tel Aviv'
p5301
sg5
I1384256400
sg6
S'LY289'
p5302
sg8
I1384241400
sg9
S'B738'
p5303
sg11
S'El Al'
p5304
sba(iflightmod
Flight
p5305
(dp5306
g3
S'Istanbul'
p5307
sg5
I1384258800
sg6
S'TK1871'
p5308
sg8
I1384249800
sg9
S'B738'
p5309
sg11
S'Turkish Airlines'
p5310
sba(iflightmod
Flight
p5311
(dp5312
g3
S'Brussels'
p5313
sg5
I1384253100
sg6
S'SN3201'
p5314
sg8
I1384247100
sg9
S'RJ1H'
p5315
sg11
S'Brussels Airlines'
p5316
sba(iflightmod
Flight
p5317
(dp5318
g3
S'Frankfurt'
p5319
sg5
I1384259700
sg6
S'LH328'
p5320
sg8
I1384254900
sg9
S'32A'
p5321
sg11
S'Lufthansa'
p5322
sba(iflightmod
Flight
p5323
(dp5324
g3
S'Doha'
p5325
sg5
I1384260000
sg6
S'QR129'
p5326
sg8
I1384236300
sg9
S'A320'
p5327
sg11
S'Qatar Airways'
p5328
sba(iflightmod
Flight
p5329
(dp5330
g3
S'Dubai'
p5331
sg5
I1384260300
sg6
S'EK135'
p5332
sg8
I1384236300
sg9
S'B77W'
p5333
sg11
S'Emirates'
p5334
sba(iflightmod
Flight
p5335
(dp5336
g3
S'Zurich'
p5337
sg5
I1384261200
sg6
S'LX1662'
p5338
sg8
I1384257300
sg9
S'A320'
p5339
sg11
S'Swiss'
p5340
sba(iflightmod
Flight
p5341
(dp5342
g3
S'Paris'
p5343
sg5
I1384261500
sg6
S'U23793'
p5344
sg8
I1384255500
sg9
S'A319'
p5345
sg11
S'EasyJet'
p5346
sba(iflightmod
Flight
p5347
(dp5348
g3
S'Istanbul'
p5349
sg5
I1384258800
sg6
S'TK1871'
p5350
sg8
I1384249800
sg9
S'B739'
p5351
sg11
S'Turkish Airlines'
p5352
sba(iflightmod
Flight
p5353
(dp5354
g3
S'Paris'
p5355
sg5
I1384263600
sg6
S'AF1726'
p5356
sg8
I1384257600
sg9
S'A319'
p5357
sg11
S'Air France'
p5358
sba(iflightmod
Flight
p5359
(dp5360
g3
S'London'
p5361
sg5
I1384266300
sg6
S'BA2584'
p5362
sg8
I1384259100
sg9
S'A319'
p5363
sg11
S'British Airways'
p5364
sba(iflightmod
Flight
p5365
(dp5366
g3
S'Rome'
p5367
sg5
I1384267200
sg6
S'AZ1475'
p5368
sg8
I1384263300
sg9
S'A320'
p5369
sg11
S'Alitalia'
p5370
sba(iflightmod
Flight
p5371
(dp5372
g3
S'Manchester'
p5373
sg5
I1384267200
sg6
S'U21863'
p5374
sg8
I1384258200
sg9
S'A319'
p5375
sg11
S'EasyJet'
p5376
sba(iflightmod
Flight
p5377
(dp5378
g3
S'Munich'
p5379
sg5
I1384255800
sg6
S'EN8202'
p5380
sg8
I1384252200
sg9
S'E190'
p5381
sg11
S'Air Dolomiti'
p5382
sba(iflightmod
Flight
p5383
(dp5384
g3
S'Casablanca'
p5385
sg5
I1384268700
sg6
S'3O2475'
p5386
sg8
I1384254000
sg9
S'A320'
p5387
sg11
S'Air Arabia Maroc'
p5388
sba(iflightmod
Flight
p5389
(dp5390
g3
S'Munich'
p5391
sg5
I1384270500
sg6
S'EN8204'
p5392
sg8
I1384266900
sg9
S'E95'
p5393
sg11
S'Air Dolomiti'
p5394
sba(iflightmod
Flight
p5395
(dp5396
g3
S'Lyon'
p5397
sg5
I1384271400
sg6
S'A54526'
p5398
sg8
I1384266600
sg9
S'E145'
p5399
sg11
S'HOP!'
p5400
sba(iflightmod
Flight
p5401
(dp5402
g3
S'Amsterdam'
p5403
sg5
I1384271700
sg6
S'KL1655'
p5404
sg8
I1384265400
sg9
S'B737'
p5405
sg11
S'KLM'
p5406
sba(iflightmod
Flight
p5407
(dp5408
g3
S'Frankfurt'
p5409
sg5
I1384259700
sg6
S'LH328'
p5410
sg8
I1384254900
sg9
S'A320'
p5411
sg11
S'Lufthansa'
p5412
sba(iflightmod
Flight
p5413
(dp5414
g3
S'London'
p5415
sg5
I1384273800
sg6
S'U25267'
p5416
sg8
I1384266300
sg9
S'A319'
p5417
sg11
S'EasyJet'
p5418
sba(iflightmod
Flight
p5419
(dp5420
g3
S'Tirana'
p5421
sg5
I1384273800
sg6
S'LZ673'
p5422
sg8
I1384268400
sg9
S'A319'
p5423
sg11
S'Belle Air'
p5424
sba(iflightmod
Flight
p5425
(dp5426
g3
S'Paris'
p5427
sg5
I1384274100
sg6
S'AF1226'
p5428
sg8
I1384268100
sg9
S'A319'
p5429
sg11
S'Air France'
p5430
sba(iflightmod
Flight
p5431
(dp5432
g3
S'Istanbul'
p5433
sg5
I1384275600
sg6
S'TK1869'
p5434
sg8
I1384266300
sg9
S'A320'
p5435
sg11
S'Turkish Airlines'
p5436
sba(iflightmod
Flight
p5437
(dp5438
g3
S'Frankfurt'
p5439
sg5
I1384276200
sg6
S'LH330'
p5440
sg8
I1384271400
sg9
S'A320'
p5441
sg11
S'Lufthansa'
p5442
sba(iflightmod
Flight
p5443
(dp5444
g3
S'Vienna'
p5445
sg5
I1384277400
sg6
S'OS529'
p5446
sg8
I1384273200
sg9
S'DH4'
p5447
sg11
S'Austrian Airlines'
p5448
sba(iflightmod
Flight
p5449
(dp5450
g3
S'London'
p5451
sg5
I1384278600
sg6
S'BA2586'
p5452
sg8
I1384271700
sg9
S'B734'
p5453
sg11
S'British Airways'
p5454
sba(iflightmod
Flight
p5455
(dp5456
g3
S'Naples'
p5457
sg5
I1384278600
sg6
S'U2997'
p5458
sg8
I1384274100
sg9
S'A319'
p5459
sg11
S'EasyJet'
p5460
sba(iflightmod
Flight
p5461
(dp5462
g3
S'Zurich'
p5463
sg5
I1384278600
sg6
S'LX1664'
p5464
sg8
I1384274400
sg9
S'F100'
p5465
sg11
S'Swiss'
p5466
sba(iflightmod
Flight
p5467
(dp5468
g3
S'Lamezia Terme'
p5469
sg5
I1384278900
sg6
S'AP729'
p5470
sg8
I1384273500
sg9
S'A320'
p5471
sg11
S'Air One'
p5472
sba(iflightmod
Flight
p5473
(dp5474
g3
S'Rome'
p5475
sg5
I1384279500
sg6
S'AZ1467'
p5476
sg8
I1384275600
sg9
S'E75'
p5477
sg11
S'Alitalia'
p5478
sba(iflightmod
Flight
p5479
(dp5480
g3
S'Madrid'
p5481
sg5
I1384280100
sg6
S'IB3246'
p5482
sg8
I1384271400
sg9
S'A321'
p5483
sg11
S'Iberia'
p5484
sba(iflightmod
Flight
p5485
(dp5486
g3
S'Paris'
p5487
sg5
I1384280400
sg6
S'U24295'
p5488
sg8
I1384274400
sg9
S'A320'
p5489
sg11
S'EasyJet'
p5490
sba(iflightmod
Flight
p5491
(dp5492
g3
S'Barcelona'
p5493
sg5
I1384281900
sg6
S'VY6402'
p5494
sg8
I1384275600
sg9
S'A320'
p5495
sg11
S'Vueling'
p5496
sba(iflightmod
Flight
p5497
(dp5498
g3
S'Paris'
p5499
sg5
I1384282500
sg6
S'TO3342'
p5500
sg8
I1384276200
sg9
S'B738'
p5501
sg11
S'Transavia France'
p5502
sba(iflightmod
Flight
p5503
(dp5504
g3
S'Rome'
p5505
sg5
I1384283100
sg6
S'AZ1481'
p5506
sg8
I1384279200
sg9
S'32S'
p5507
sg11
S'Alitalia'
p5508
sba(iflightmod
Flight
p5509
(dp5510
g3
S'Rome'
p5511
sg5
I1384287900
sg6
S'AZ1483'
p5512
sg8
I1384284000
sg9
S'A320'
p5513
sg11
S'Alitalia'
p5514
sba(iflightmod
Flight
p5515
(dp5516
g3
S'Vienna'
p5517
sg5
I1384289100
sg6
S'OS527'
p5518
sg8
I1384284900
sg9
S'DH4'
p5519
sg11
S'Austrian Airlines'
p5520
sba(iflightmod
Flight
p5521
(dp5522
g3
S'Munich'
p5523
sg5
I1384270500
sg6
S'EN8204'
p5524
sg8
I1384266900
sg9
S'E190'
p5525
sg11
S'Air Dolomiti'
p5526
sba(iflightmod
Flight
p5527
(dp5528
g3
S'Moscow'
p5529
sg5
I1384290000
sg6
S'SU2422'
p5530
sg8
I1384277700
sg9
S'A320'
p5531
sg11
S'Aeroflot'
p5532
sba(iflightmod
Flight
p5533
(dp5534
g3
S'Paris'
p5535
sg5
I1384290600
sg6
S'AF1326'
p5536
sg8
I1384284600
sg9
S'A318'
p5537
sg11
S'Air France'
p5538
sba(iflightmod
Flight
p5539
(dp5540
g3
S'Amsterdam'
p5541
sg5
I1384291200
sg6
S'KL1659'
p5542
sg8
I1384284900
sg9
S'B737'
p5543
sg11
S'KLM'
p5544
sba(iflightmod
Flight
p5545
(dp5546
g3
S'Rome'
p5547
sg5
I1384283100
sg6
S'AZ1481'
p5548
sg8
I1384279200
sg9
S'A319'
p5549
sg11
S'Alitalia'
p5550
sba(iflightmod
Flight
p5551
(dp5552
g3
S'Rome'
p5553
sg5
I1384291500
sg6
S'AZ1473'
p5554
sg8
I1384287600
sg9
S'32S'
p5555
sg11
S'Alitalia'
p5556
sba(iflightmod
Flight
p5557
(dp5558
g3
S'Munich'
p5559
sg5
I1384291500
sg6
S'EN8206'
p5560
sg8
I1384287900
sg9
S'E95'
p5561
sg11
S'Air Dolomiti'
p5562
sba(iflightmod
Flight
p5563
(dp5564
g3
S'Brussels'
p5565
sg5
I1384292100
sg6
S'SN3207'
p5566
sg8
I1384285800
sg9
S'AR1'
p5567
sg11
S'Brussels Airlines'
p5568
sba(iflightmod
Flight
p5569
(dp5570
g3
S'Frankfurt'
p5571
sg5
I1384294500
sg6
S'LH332'
p5572
sg8
I1384289700
sg9
S'A321'
p5573
sg11
S'Lufthansa'
p5574
sba(iflightmod
Flight
p5575
(dp5576
g3
S'Catania'
p5577
sg5
I1384295100
sg6
S'AP872'
p5578
sg8
I1384289100
sg9
S'A320'
p5579
sg11
S'Air One'
p5580
sba(iflightmod
Flight
p5581
(dp5582
g3
S'Catania'
p5583
sg5
I1384295700
sg6
S'V71265'
p5584
sg8
I1384289400
sg9
S'B717'
p5585
sg11
S'Volotea'
p5586
sba(iflightmod
Flight
p5587
(dp5588
g3
S'Chisinau'
p5589
sg5
I1384326000
sg6
S'V3260'
p5590
sg8
I1384317900
sg9
S'B733'
p5591
sg11
S'Carpatair'
p5592
sba(iflightmod
Flight
p5593
(dp5594
g3
S'Munich'
p5595
sg5
I1384326300
sg6
S'EN8200'
p5596
sg8
I1384322700
sg9
S'E95'
p5597
sg11
S'Air Dolomiti'
p5598
sba(iflightmod
Flight
p5599
(dp5600
g3
S'Amsterdam'
p5601
sg5
I1384328400
sg6
S'HV5495'
p5602
sg8
I1384322100
sg9
S'B738'
p5603
sg11
S'Transavia'
p5604
sba(iflightmod
Flight
p5605
(dp5606
g3
S'Zurich'
p5607
sg5
I1384328400
sg6
S'LX1660'
p5608
sg8
I1384324200
sg9
S'AR1'
p5609
sg11
S'Swiss'
p5610
sba(iflightmod
Flight
p5611
(dp5612
g3
S'Paris'
p5613
sg5
I1384329600
sg6
S'AF1126'
p5614
sg8
I1384323600
sg9
S'A319'
p5615
sg11
S'Air France'
p5616
sba(iflightmod
Flight
p5617
(dp5618
g3
S'Rome'
p5619
sg5
I1384331100
sg6
S'AZ1471'
p5620
sg8
I1384327200
sg9
S'E190'
p5621
sg11
S'Alitalia'
p5622
sba(iflightmod
Flight
p5623
(dp5624
g3
S'Istanbul'
p5625
sg5
I1384331100
sg6
S'TK1867'
p5626
sg8
I1384322100
sg9
S'A320'
p5627
sg11
S'Turkish Airlines'
p5628
sba(iflightmod
Flight
p5629
(dp5630
g3
S'Naples'
p5631
sg5
I1384332900
sg6
S'U2991'
p5632
sg8
I1384328400
sg9
S'A319'
p5633
sg11
S'EasyJet'
p5634
sba(iflightmod
Flight
p5635
(dp5636
g3
S'Tunis'
p5637
sg5
I1384333800
sg6
S'TU472'
p5638
sg8
I1384327800
sg9
S'A319'
p5639
sg11
S'Tunisair'
p5640
sba(iflightmod
Flight
p5641
(dp5642
g3
S'Frankfurt'
p5643
sg5
I1384334100
sg6
S'LH324'
p5644
sg8
I1384329300
sg9
S'A320'
p5645
sg11
S'Lufthansa'
p5646
sba(iflightmod
Flight
p5647
(dp5648
g3
S'Lyon'
p5649
sg5
I1384334100
sg6
S'A54522'
p5650
sg8
I1384329300
sg9
S'CR7'
p5651
sg11
S'HOP!'
p5652
sba(iflightmod
Flight
p5653
(dp5654
g3
S'Vienna'
p5655
sg5
I1384334400
sg6
S'OS521'
p5656
sg8
I1384330200
sg9
S'DH4'
p5657
sg11
S'Austrian Airlines'
p5658
sba(iflightmod
Flight
p5659
(dp5660
g3
S'Palermo'
p5661
sg5
I1384335600
sg6
S'V71219'
p5662
sg8
I1384329900
sg9
S'B717'
p5663
sg11
S'Volotea'
p5664
sba(iflightmod
Flight
p5665
(dp5666
g3
S'Vienna'
p5667
sg5
I1384289100
sg6
S'OS527'
p5668
sg8
I1384284900
sg9
S'DH8D'
p5669
sg11
S'Austrian Airlines'
p5670
sba(iflightmod
Flight
p5671
(dp5672
g3
S'Rome'
p5673
sg5
I1384291500
sg6
S'AZ1473'
p5674
sg8
I1384287600
sg9
S'A319'
p5675
sg11
S'Alitalia'
p5676
sba(iflightmod
Flight
p5677
(dp5678
g3
S'Munich'
p5679
sg5
I1384291500
sg6
S'EN8206'
p5680
sg8
I1384287900
sg9
S'E190'
p5681
sg11
S'Air Dolomiti'
p5682
sba(iflightmod
Flight
p5683
(dp5684
g3
S'Brussels'
p5685
sg5
I1384292100
sg6
S'SN3207'
p5686
sg8
I1384285800
sg9
S'RJ1H'
p5687
sg11
S'Brussels Airlines'
p5688
sba(iflightmod
Flight
p5689
(dp5690
g3
S'London'
p5691
sg5
I1384336200
sg6
S'BA2582'
p5692
sg8
I1384328700
sg9
S'B734'
p5693
sg11
S'British Airways'
p5694
sba(iflightmod
Flight
p5695
(dp5696
g3
S'Rome'
p5697
sg5
I1384337700
sg6
S'AZ1463'
p5698
sg8
I1384333800
sg9
S'A320'
p5699
sg11
S'Alitalia'
p5700
sba(iflightmod
Flight
p5701
(dp5702
g3
S'Catania'
p5703
sg5
I1384295700
sg6
S'V71265'
p5704
sg8
I1384289400
sg9
S'B712'
p5705
sg11
S'Volotea'
p5706
sba(iflightmod
Flight
p5707
(dp5708
g3
S'Madrid'
p5709
sg5
I1384338000
sg6
S'IB3242'
p5710
sg8
I1384329000
sg9
S'A320'
p5711
sg11
S'Iberia'
p5712
sba(iflightmod
Flight
p5713
(dp5714
g3
S'Marseille'
p5715
sg5
I1384338300
sg6
S'AF4332'
p5716
sg8
I1384333800
sg9
S'A320'
p5717
sg11
S'Air France'
p5718
sba(iflightmod
Flight
p5719
(dp5720
g3
S'Berlin'
p5721
sg5
I1384339200
sg6
S'U24651'
p5722
sg8
I1384332900
sg9
S'A319'
p5723
sg11
S'EasyJet'
p5724
sba(iflightmod
Flight
p5725
(dp5726
g3
S'Amsterdam'
p5727
sg5
I1384339500
sg6
S'KL1653'
p5728
sg8
I1384332900
sg9
S'73J'
p5729
sg11
S'KLM'
p5730
sba(iflightmod
Flight
p5731
(dp5732
g3
S'Brussels'
p5733
sg5
I1384339500
sg6
S'SN3201'
p5734
sg8
I1384333500
sg9
S'AR1'
p5735
sg11
S'Brussels Airlines'
p5736
sba(iflightmod
Flight
p5737
(dp5738
g3
S'Frankfurt'
p5739
sg5
I1384339800
sg6
S'LH326'
p5740
sg8
I1384335000
sg9
S'B733'
p5741
sg11
S'Lufthansa'
p5742
sba(iflightmod
Flight
p5743
(dp5744
g3
S'London'
p5745
sg5
I1384339800
sg6
S'BA578'
p5746
sg8
I1384332300
sg9
S'A319'
p5747
sg11
S'British Airways'
p5748
sba(iflightmod
Flight
p5749
(dp5750
g3
S'Moscow'
p5751
sg5
I1384339800
sg6
S'SU2596'
p5752
sg8
I1384327500
sg9
S'A319'
p5753
sg11
S'Aeroflot'
p5754
sba(iflightmod
Flight
p5755
(dp5756
g3
S'Paris'
p5757
sg5
I1384340400
sg6
S'AF1426'
p5758
sg8
I1384334400
sg9
S'A318'
p5759
sg11
S'Air France'
p5760
sba(iflightmod
Flight
p5761
(dp5762
g3
S'Dusseldorf'
p5763
sg5
I1384340700
sg6
S'AB8862'
p5764
sg8
I1384334400
sg9
S'DH4'
p5765
sg11
S'Air Berlin'
p5766
sba(iflightmod
Flight
p5767
(dp5768
g3
S'Munich'
p5769
sg5
I1384326300
sg6
S'EN8200'
p5770
sg8
I1384322700
sg9
S'E190'
p5771
sg11
S'Air Dolomiti'
p5772
sba(iflightmod
Flight
p5773
(dp5774
g3
S'Istanbul'
p5775
sg5
I1384331100
sg6
S'TK1867'
p5776
sg8
I1384322100
sg9
S'A321'
p5777
sg11
S'Turkish Airlines'
p5778
sba(iflightmod
Flight
p5779
(dp5780
g3
S'Zurich'
p5781
sg5
I1384328400
sg6
S'LX1660'
p5782
sg8
I1384324200
sg9
S'RJ1H'
p5783
sg11
S'Swiss'
p5784
sba(iflightmod
Flight
p5785
(dp5786
g3
S'Barcelona'
p5787
sg5
I1384341600
sg6
S'VY6400'
p5788
sg8
I1384335300
sg9
S'A320'
p5789
sg11
S'Vueling'
p5790
sba(iflightmod
Flight
p5791
(dp5792
g3
S'Munich'
p5793
sg5
I1384342200
sg6
S'EN8202'
p5794
sg8
I1384338600
sg9
S'E95'
p5795
sg11
S'Air Dolomiti'
p5796
sba(iflightmod
Flight
p5797
(dp5798
g3
S'Istanbul'
p5799
sg5
I1384345200
sg6
S'TK1871'
p5800
sg8
I1384336200
sg9
S'B738'
p5801
sg11
S'Turkish Airlines'
p5802
sba(iflightmod
Flight
p5803
(dp5804
g3
S'Frankfurt'
p5805
sg5
I1384346100
sg6
S'LH328'
p5806
sg8
I1384341300
sg9
S'A319'
p5807
sg11
S'Lufthansa'
p5808
sba(iflightmod
Flight
p5809
(dp5810
g3
S'Tunis'
p5811
sg5
I1384333800
sg6
S'TU472'
p5812
sg8
I1384327800
sg9
S'B736'
p5813
sg11
S'Tunisair'
p5814
sba(iflightmod
Flight
p5815
(dp5816
g3
S'Lyon'
p5817
sg5
I1384334100
sg6
S'A54522'
p5818
sg8
I1384329300
sg9
S'CRJ7'
p5819
sg11
S'HOP!'
p5820
sba(iflightmod
Flight
p5821
(dp5822
g3
S'Vienna'
p5823
sg5
I1384334400
sg6
S'OS521'
p5824
sg8
I1384330200
sg9
S'DH8D'
p5825
sg11
S'Austrian Airlines'
p5826
sba(iflightmod
Flight
p5827
(dp5828
g3
S'Doha'
p5829
sg5
I1384346400
sg6
S'QR129'
p5830
sg8
I1384322700
sg9
S'A320'
p5831
sg11
S'Qatar Airways'
p5832
sba(iflightmod
Flight
p5833
(dp5834
g3
S'Palermo'
p5835
sg5
I1384335600
sg6
S'V71219'
p5836
sg8
I1384329900
sg9
S'B712'
p5837
sg11
S'Volotea'
p5838
sba(iflightmod
Flight
p5839
(dp5840
g3
S'Amsterdam'
p5841
sg5
I1384339500
sg6
S'KL1653'
p5842
sg8
I1384332900
sg9
S'B739'
p5843
sg11
S'KLM'
p5844
sba(iflightmod
Flight
p5845
(dp5846
g3
S'Dubai'
p5847
sg5
I1384346700
sg6
S'EK135'
p5848
sg8
I1384322700
sg9
S'B77W'
p5849
sg11
S'Emirates'
p5850
sba(iflightmod
Flight
p5851
(dp5852
g3
S'Zurich'
p5853
sg5
I1384347600
sg6
S'LX1662'
p5854
sg8
I1384343700
sg9
S'A319'
p5855
sg11
S'Swiss'
p5856
sba(iflightmod
Flight
p5857
(dp5858
g3
S'Brussels'
p5859
sg5
I1384339500
sg6
S'SN3201'
p5860
sg8
I1384333500
sg9
S'RJ1H'
p5861
sg11
S'Brussels Airlines'
p5862
sba(iflightmod
Flight
p5863
(dp5864
g3
S'Munich'
p5865
sg5
I1384342200
sg6
S'EN8202'
p5866
sg8
I1384338600
sg9
S'E190'
p5867
sg11
S'Air Dolomiti'
p5868
sba(iflightmod
Flight
p5869
(dp5870
g3
S'Paris'
p5871
sg5
I1384347900
sg6
S'U23793'
p5872
sg8
I1384341900
sg9
S'A319'
p5873
sg11
S'EasyJet'
p5874
sba(iflightmod
Flight
p5875
(dp5876
g3
S'Cologne'
p5877
sg5
I1384348800
sg6
S'4U814'
p5878
sg8
I1384343400
sg9
S'A319'
p5879
sg11
S'Germanwings'
p5880
sba(iflightmod
Flight
p5881
(dp5882
g3
S'London'
p5883
sg5
I1384348800
sg6
S'BA8479'
p5884
sg8
I1384341300
sg9
S'E170'
p5885
sg11
S'British Airways'
p5886
sba(iflightmod
Flight
p5887
(dp5888
g3
S'Prague'
p5889
sg5
I1384349700
sg6
S'AP753'
p5890
sg8
I1384344600
sg9
S'A320'
p5891
sg11
S'Air One'
p5892
sba(iflightmod
Flight
p5893
(dp5894
g3
S'Paris'
p5895
sg5
I1384350000
sg6
S'AF1726'
p5896
sg8
I1384344000
sg9
S'A319'
p5897
sg11
S'Air France'
p5898
sba(iflightmod
Flight
p5899
(dp5900
g3
S'Moscow'
p5901
sg5
I1384351800
sg6
S'UN393'
p5902
sg8
I1384339800
sg9
S'B738'
p5903
sg11
S'Transaero Airlines'
p5904
sba(iflightmod
Flight
p5905
(dp5906
g3
S'London'
p5907
sg5
I1384352700
sg6
S'BA2584'
p5908
sg8
I1384345500
sg9
S'A319'
p5909
sg11
S'British Airways'
p5910
sba(iflightmod
Flight
p5911
(dp5912
g3
S'Rome'
p5913
sg5
I1384353600
sg6
S'AZ1475'
p5914
sg8
I1384349700
sg9
S'A320'
p5915
sg11
S'Alitalia'
p5916
sba(iflightmod
Flight
p5917
(dp5918
g3
S'Lisbon'
p5919
sg5
I1384356600
sg6
S'TP876'
p5920
sg8
I1384345800
sg9
S'A320'
p5921
sg11
S'TAP Portugal'
p5922
sba(iflightmod
Flight
p5923
(dp5924
g3
S'Munich'
p5925
sg5
I1384356900
sg6
S'EN8204'
p5926
sg8
I1384353300
sg9
S'E95'
p5927
sg11
S'Air Dolomiti'
p5928
sba(iflightmod
Flight
p5929
(dp5930
g3
S'Dusseldorf'
p5931
sg5
I1384340700
sg6
S'AB8862'
p5932
sg8
I1384334400
sg9
S'DH8D'
p5933
sg11
S'Air Berlin'
p5934
sba(iflightmod
Flight
p5935
(dp5936
g3
S'Lyon'
p5937
sg5
I1384357800
sg6
S'A54526'
p5938
sg8
I1384353000
sg9
S'E145'
p5939
sg11
S'HOP!'
p5940
sba(iflightmod
Flight
p5941
(dp5942
g3
S'Amsterdam'
p5943
sg5
I1384358100
sg6
S'KL1655'
p5944
sg8
I1384351800
sg9
S'B737'
p5945
sg11
S'KLM'
p5946
sba(iflightmod
Flight
p5947
(dp5948
g3
S'Brussels'
p5949
sg5
I1384359900
sg6
S'SN3205'
p5950
sg8
I1384353900
sg9
S'AR1'
p5951
sg11
S'Brussels Airlines'
p5952
sba(iflightmod
Flight
p5953
(dp5954
g3
S'London'
p5955
sg5
I1384360200
sg6
S'U25267'
p5956
sg8
I1384352700
sg9
S'A319'
p5957
sg11
S'EasyJet'
p5958
sba(iflightmod
Flight
p5959
(dp5960
g3
S'Tirana'
p5961
sg5
I1384360200
sg6
S'LZ673'
p5962
sg8
I1384354800
sg9
S'A319'
p5963
sg11
S'Belle Air'
p5964
sba(iflightmod
Flight
p5965
(dp5966
g3
S'Paris'
p5967
sg5
I1384360500
sg6
S'AF1226'
p5968
sg8
I1384354500
sg9
S'A318'
p5969
sg11
S'Air France'
p5970
sba(iflightmod
Flight
p5971
(dp5972
g3
S'Istanbul'
p5973
sg5
I1384362000
sg6
S'TK1869'
p5974
sg8
I1384352700
sg9
S'A320'
p5975
sg11
S'Turkish Airlines'
p5976
sba(iflightmod
Flight
p5977
(dp5978
g3
S'Frankfurt'
p5979
sg5
I1384362600
sg6
S'LH330'
p5980
sg8
I1384357800
sg9
S'32A'
p5981
sg11
S'Lufthansa'
p5982
sba(iflightmod
Flight
p5983
(dp5984
g3
S'Vienna'
p5985
sg5
I1384363800
sg6
S'OS529'
p5986
sg8
I1384359600
sg9
S'DH4'
p5987
sg11
S'Austrian Airlines'
p5988
sba(iflightmod
Flight
p5989
(dp5990
g3
S'London'
p5991
sg5
I1384365000
sg6
S'BA2586'
p5992
sg8
I1384358100
sg9
S'B734'
p5993
sg11
S'British Airways'
p5994
sba(iflightmod
Flight
p5995
(dp5996
g3
S'Naples'
p5997
sg5
I1384365000
sg6
S'U2997'
p5998
sg8
I1384360500
sg9
S'A319'
p5999
sg11
S'EasyJet'
p6000
sba(iflightmod
Flight
p6001
(dp6002
g3
S'Zurich'
p6003
sg5
I1384365000
sg6
S'LX1664'
p6004
sg8
I1384360800
sg9
S'F100'
p6005
sg11
S'Swiss'
p6006
sba(iflightmod
Flight
p6007
(dp6008
g3
S'Palermo'
p6009
sg5
I1384365300
sg6
S'AP735'
p6010
sg8
I1384359900
sg9
S'A320'
p6011
sg11
S'Air One'
p6012
sba(iflightmod
Flight
p6013
(dp6014
g3
S'Rome'
p6015
sg5
I1384365900
sg6
S'AZ1467'
p6016
sg8
I1384362000
sg9
S'E75'
p6017
sg11
S'Alitalia'
p6018
sba(iflightmod
Flight
p6019
(dp6020
g3
S'Madrid'
p6021
sg5
I1384366500
sg6
S'IB3246'
p6022
sg8
I1384357800
sg9
S'A321'
p6023
sg11
S'Iberia'
p6024
sba(iflightmod
Flight
p6025
(dp6026
g3
S'Paris'
p6027
sg5
I1384366800
sg6
S'U24295'
p6028
sg8
I1384360800
sg9
S'A320'
p6029
sg11
S'EasyJet'
p6030
sba(iflightmod
Flight
p6031
(dp6032
g3
S'Munich'
p6033
sg5
I1384356900
sg6
S'EN8204'
p6034
sg8
I1384353300
sg9
S'E190'
p6035
sg11
S'Air Dolomiti'
p6036
sba(iflightmod
Flight
p6037
(dp6038
g3
S'Lisbon'
p6039
sg5
I1384367100
sg6
S'U27681'
p6040
sg8
I1384356600
sg9
S'A319'
p6041
sg11
S'EasyJet'
p6042
sba(iflightmod
Flight
p6043
(dp6044
g3
S'Barcelona'
p6045
sg5
I1384368300
sg6
S'VY6402'
p6046
sg8
I1384362000
sg9
S'A320'
p6047
sg11
S'Vueling'
p6048
sba(iflightmod
Flight
p6049
(dp6050
g3
S'Rome'
p6051
sg5
I1384369500
sg6
S'AZ1481'
p6052
sg8
I1384365600
sg9
S'A319'
p6053
sg11
S'Alitalia'
p6054
sba(iflightmod
Flight
p6055
(dp6056
g3
S'Paris'
p6057
sg5
I1384371000
sg6
S'U23795'
p6058
sg8
I1384365000
sg9
S'A319'
p6059
sg11
S'EasyJet'
p6060
sba(iflightmod
Flight
p6061
(dp6062
g3
S'Rome'
p6063
sg5
I1384374300
sg6
S'AZ1483'
p6064
sg8
I1384370400
sg9
S'A320'
p6065
sg11
S'Alitalia'
p6066
sba(iflightmod
Flight
p6067
(dp6068
g3
S'Vienna'
p6069
sg5
I1384375500
sg6
S'OS527'
p6070
sg8
I1384371300
sg9
S'DH4'
p6071
sg11
S'Austrian Airlines'
p6072
sba(iflightmod
Flight
p6073
(dp6074
g3
S'Brussels'
p6075
sg5
I1384359900
sg6
S'SN3205'
p6076
sg8
I1384353900
sg9
S'RJ1H'
p6077
sg11
S'Brussels Airlines'
p6078
sba(iflightmod
Flight
p6079
(dp6080
g3
S'Frankfurt'
p6081
sg5
I1384362600
sg6
S'LH330'
p6082
sg8
I1384357800
sg9
S'A320'
p6083
sg11
S'Lufthansa'
p6084
sba(iflightmod
Flight
p6085
(dp6086
g3
S'Moscow'
p6087
sg5
I1384376400
sg6
S'SU2422'
p6088
sg8
I1384364100
sg9
S'A320'
p6089
sg11
S'Aeroflot'
p6090
sba(iflightmod
Flight
p6091
(dp6092
g3
S'Bari'
p6093
sg5
I1384376700
sg6
S'V71235'
p6094
sg8
I1384371900
sg9
S'B717'
p6095
sg11
S'Volotea'
p6096
sba(iflightmod
Flight
p6097
(dp6098
g3
S'Paris'
p6099
sg5
I1384377000
sg6
S'AF1326'
p6100
sg8
I1384371000
sg9
S'A318'
p6101
sg11
S'Air France'
p6102
sba(iflightmod
Flight
p6103
(dp6104
g3
S'Vienna'
p6105
sg5
I1384363800
sg6
S'OS529'
p6106
sg8
I1384359600
sg9
S'DH8D'
p6107
sg11
S'Austrian Airlines'
p6108
sba(iflightmod
Flight
p6109
(dp6110
g3
S'Amsterdam'
p6111
sg5
I1384377600
sg6
S'KL1659'
p6112
sg8
I1384371300
sg9
S'B737'
p6113
sg11
S'KLM'
p6114
sba(iflightmod
Flight
p6115
(dp6116
g3
S'Rome'
p6117
sg5
I1384377900
sg6
S'AZ1473'
p6118
sg8
I1384374000
sg9
S'32S'
p6119
sg11
S'Alitalia'
p6120
sba(iflightmod
Flight
p6121
(dp6122
g3
S'Munich'
p6123
sg5
I1384377900
sg6
S'EN8206'
p6124
sg8
I1384374300
sg9
S'E95'
p6125
sg11
S'Air Dolomiti'
p6126
sba(iflightmod
Flight
p6127
(dp6128
g3
S'Brussels'
p6129
sg5
I1384378500
sg6
S'SN3207'
p6130
sg8
I1384372200
sg9
S'AR1'
p6131
sg11
S'Brussels Airlines'
p6132
sba(iflightmod
Flight
p6133
(dp6134
g3
S'Frankfurt'
p6135
sg5
I1384380900
sg6
S'LH332'
p6136
sg8
I1384376100
sg9
S'A320'
p6137
sg11
S'Lufthansa'
p6138
sba(iflightmod
Flight
p6139
(dp6140
g3
S'Catania'
p6141
sg5
I1384381500
sg6
S'AP872'
p6142
sg8
I1384375500
sg9
S'A320'
p6143
sg11
S'Air One'
p6144
sba(iflightmod
Flight
p6145
(dp6146
g3
S'Vienna'
p6147
sg5
I1384375500
sg6
S'OS527'
p6148
sg8
I1384371300
sg9
S'DH8D'
p6149
sg11
S'Austrian Airlines'
p6150
sba(iflightmod
Flight
p6151
(dp6152
g3
S'Bari'
p6153
sg5
I1384376700
sg6
S'V71235'
p6154
sg8
I1384371900
sg9
S'B712'
p6155
sg11
S'Volotea'
p6156
sba(iflightmod
Flight
p6157
(dp6158
g3
S'Munich'
p6159
sg5
I1384377900
sg6
S'EN8206'
p6160
sg8
I1384374300
sg9
S'E190'
p6161
sg11
S'Air Dolomiti'
p6162
sba(iflightmod
Flight
p6163
(dp6164
g3
S'Brussels'
p6165
sg5
I1384378500
sg6
S'SN3207'
p6166
sg8
I1384372200
sg9
S'RJ1H'
p6167
sg11
S'Brussels Airlines'
p6168
sba(iflightmod
Flight
p6169
(dp6170
g3
S'Casablanca'
p6171
sg5
I1384406400
sg6
S'3O2477'
p6172
sg8
I1384391700
sg9
S'A320'
p6173
sg11
S'Air Arabia Maroc'
p6174
sba(iflightmod
Flight
p6175
(dp6176
g3
S'Tirana'
p6177
sg5
I1384410300
sg6
S'LZ673'
p6178
sg8
I1384405200
sg9
S'A319'
p6179
sg11
S'Belle Air'
p6180
sba(iflightmod
Flight
p6181
(dp6182
g3
S'Munich'
p6183
sg5
I1384412700
sg6
S'EN8200'
p6184
sg8
I1384409100
sg9
S'E95'
p6185
sg11
S'Air Dolomiti'
p6186
sba(iflightmod
Flight
p6187
(dp6188
g3
S'Nantes'
p6189
sg5
I1384414500
sg6
S'TO3972'
p6190
sg8
I1384407600
sg9
S'B738'
p6191
sg11
S'Transavia France'
p6192
sba(iflightmod
Flight
p6193
(dp6194
g3
S'Zurich'
p6195
sg5
I1384414800
sg6
S'LX1660'
p6196
sg8
I1384410600
sg9
S'AR1'
p6197
sg11
S'Swiss'
p6198
sba(iflightmod
Flight
p6199
(dp6200
g3
S'Paris'
p6201
sg5
I1384416000
sg6
S'AF1126'
p6202
sg8
I1384410000
sg9
S'A319'
p6203
sg11
S'Air France'
p6204
sba(iflightmod
Flight
p6205
(dp6206
g3
S'Paris'
p6207
sg5
I1384416000
sg6
S'U24291'
p6208
sg8
I1384410000
sg9
S'A320'
p6209
sg11
S'EasyJet'
p6210
sba(iflightmod
Flight
p6211
(dp6212
g3
S'Philadelphia'
p6213
sg5
I1384416900
sg6
S'US714'
p6214
sg8
I1384386300
sg9
S'B762'
p6215
sg11
S'US Airways'
p6216
sba(iflightmod
Flight
p6217
(dp6218
g3
S'Rome'
p6219
sg5
I1384417500
sg6
S'AZ1471'
p6220
sg8
I1384413600
sg9
S'E75'
p6221
sg11
S'Alitalia'
p6222
sba(iflightmod
Flight
p6223
(dp6224
g3
S'Istanbul'
p6225
sg5
I1384417500
sg6
S'TK1867'
p6226
sg8
I1384408500
sg9
S'A320'
p6227
sg11
S'Turkish Airlines'
p6228
sba(iflightmod
Flight
p6229
(dp6230
g3
S'Naples'
p6231
sg5
I1384419300
sg6
S'U2991'
p6232
sg8
I1384414800
sg9
S'A319'
p6233
sg11
S'EasyJet'
p6234
sba(iflightmod
Flight
p6235
(dp6236
g3
S'Lyon'
p6237
sg5
I1384420500
sg6
S'A54522'
p6238
sg8
I1384415700
sg9
S'CR7'
p6239
sg11
S'HOP!'
p6240
sba(iflightmod
Flight
p6241
(dp6242
g3
S'Vienna'
p6243
sg5
I1384420800
sg6
S'OS521'
p6244
sg8
I1384416600
sg9
S'DH4'
p6245
sg11
S'Austrian Airlines'
p6246
sba(iflightmod
Flight
p6247
(dp6248
g3
S'Catania'
p6249
sg5
I1384421100
sg6
S'AP870'
p6250
sg8
I1384415100
sg9
S'A320'
p6251
sg11
S'Air One'
p6252
sba(iflightmod
Flight
p6253
(dp6254
g3
S'Rome'
p6255
sg5
I1384377900
sg6
S'AZ1473'
p6256
sg8
I1384374000
sg9
S'A320'
p6257
sg11
S'Alitalia'
p6258
sba(iflightmod
Flight
p6259
(dp6260
g3
S'Frankfurt'
p6261
sg5
I1384421100
sg6
S'LH324'
p6262
sg8
I1384416300
sg9
S'A320'
p6263
sg11
S'Lufthansa'
p6264
sba(iflightmod
Flight
p6265
(dp6266
g3
S'London'
p6267
sg5
I1384422000
sg6
S'BA2582'
p6268
sg8
I1384414500
sg9
S'B734'
p6269
sg11
S'British Airways'
p6270
sba(iflightmod
Flight
p6271
(dp6272
g3
S'Manchester'
p6273
sg5
I1384423800
sg6
S'ZB1376'
p6274
sg8
I1384415400
sg9
S'A320'
p6275
sg11
S'Monarch Airlines'
p6276
sba(iflightmod
Flight
p6277
(dp6278
g3
S'Rome'
p6279
sg5
I1384424100
sg6
S'AZ1463'
p6280
sg8
I1384420200
sg9
S'A320'
p6281
sg11
S'Alitalia'
p6282
sba(iflightmod
Flight
p6283
(dp6284
g3
S'Madrid'
p6285
sg5
I1384424400
sg6
S'IB3242'
p6286
sg8
I1384415400
sg9
S'A320'
p6287
sg11
S'Iberia'
p6288
sba(iflightmod
Flight
p6289
(dp6290
g3
S'Toulouse'
p6291
sg5
I1384425300
sg6
S'AF4374'
p6292
sg8
I1384419300
sg9
S'A319'
p6293
sg11
S'Air France'
p6294
sba(iflightmod
Flight
p6295
(dp6296
g3
S'Berlin'
p6297
sg5
I1384425600
sg6
S'U24651'
p6298
sg8
I1384419300
sg9
S'A319'
p6299
sg11
S'EasyJet'
p6300
sba(iflightmod
Flight
p6301
(dp6302
g3
S'Amsterdam'
p6303
sg5
I1384425900
sg6
S'KL1653'
p6304
sg8
I1384419300
sg9
S'E190'
p6305
sg11
S'KLM'
p6306
sba(iflightmod
Flight
p6307
(dp6308
g3
S'Lyon'
p6309
sg5
I1384420500
sg6
S'A54522'
p6310
sg8
I1384415700
sg9
S'CRJ7'
p6311
sg11
S'HOP!'
p6312
sba(iflightmod
Flight
p6313
(dp6314
g3
S'Vienna'
p6315
sg5
I1384420800
sg6
S'OS521'
p6316
sg8
I1384416600
sg9
S'DH8D'
p6317
sg11
S'Austrian Airlines'
p6318
sba(iflightmod
Flight
p6319
(dp6320
g3
S'Brussels'
p6321
sg5
I1384425900
sg6
S'SN3201'
p6322
sg8
I1384419900
sg9
S'AR1'
p6323
sg11
S'Brussels Airlines'
p6324
sba(iflightmod
Flight
p6325
(dp6326
g3
S'London'
p6327
sg5
I1384425900
sg6
S'U25263'
p6328
sg8
I1384418400
sg9
S'A319'
p6329
sg11
S'EasyJet'
p6330
sba(iflightmod
Flight
p6331
(dp6332
g3
S'Lisbon'
p6333
sg5
I1384425900
sg6
S'TP874'
p6334
sg8
I1384415400
sg9
S'A320'
p6335
sg11
S'TAP Portugal'
p6336
sba(iflightmod
Flight
p6337
(dp6338
g3
S'Frankfurt'
p6339
sg5
I1384426200
sg6
S'LH326'
p6340
sg8
I1384421400
sg9
S'A321'
p6341
sg11
S'Lufthansa'
p6342
sba(iflightmod
Flight
p6343
(dp6344
g3
S'London'
p6345
sg5
I1384426200
sg6
S'BA578'
p6346
sg8
I1384418700
sg9
S'A319'
p6347
sg11
S'British Airways'
p6348
sba(iflightmod
Flight
p6349
(dp6350
g3
S'Moscow'
p6351
sg5
I1384426200
sg6
S'SU2596'
p6352
sg8
I1384413900
sg9
S'A320'
p6353
sg11
S'Aeroflot'
p6354
sba(iflightmod
Flight
p6355
(dp6356
g3
S'Paris'
p6357
sg5
I1384426800
sg6
S'AF1426'
p6358
sg8
I1384420800
sg9
S'A318'
p6359
sg11
S'Air France'
p6360
sba(iflightmod
Flight
p6361
(dp6362
g3
S'Stuttgart'
p6363
sg5
I1384427400
sg6
S'AB8984'
p6364
sg8
I1384423200
sg9
S'DH4'
p6365
sg11
S'Air Berlin'
p6366
sba(iflightmod
Flight
p6367
(dp6368
g3
S'Barcelona'
p6369
sg5
I1384428000
sg6
S'VY6400'
p6370
sg8
I1384421700
sg9
S'A320'
p6371
sg11
S'Vueling'
p6372
sba(iflightmod
Flight
p6373
(dp6374
g3
S'Munich'
p6375
sg5
I1384428600
sg6
S'EN8202'
p6376
sg8
I1384425000
sg9
S'E95'
p6377
sg11
S'Air Dolomiti'
p6378
sba(iflightmod
Flight
p6379
(dp6380
g3
S'Paris'
p6381
sg5
I1384430100
sg6
S'U23793'
p6382
sg8
I1384424100
sg9
S'A319'
p6383
sg11
S'EasyJet'
p6384
sba(iflightmod
Flight
p6385
(dp6386
g3
S'Geneva'
p6387
sg5
I1384430700
sg6
S'U21327'
p6388
sg8
I1384426200
sg9
S'A319'
p6389
sg11
S'EasyJet'
p6390
sba(iflightmod
Flight
p6391
(dp6392
g3
S'Istanbul'
p6393
sg5
I1384431600
sg6
S'TK1871'
p6394
sg8
I1384422600
sg9
S'B738'
p6395
sg11
S'Turkish Airlines'
p6396
sba(iflightmod
Flight
p6397
(dp6398
g3
S'Rome'
p6399
sg5
I1384432500
sg6
S'AZ1465'
p6400
sg8
I1384428600
sg9
S'A319'
p6401
sg11
S'Alitalia'
p6402
sba(iflightmod
Flight
p6403
(dp6404
g3
S'Frankfurt'
p6405
sg5
I1384432500
sg6
S'LH328'
p6406
sg8
I1384427700
sg9
S'A320'
p6407
sg11
S'Lufthansa'
p6408
sba(iflightmod
Flight
p6409
(dp6410
g3
S'Doha'
p6411
sg5
I1384432800
sg6
S'QR129'
p6412
sg8
I1384409100
sg9
S'A320'
p6413
sg11
S'Qatar Airways'
p6414
sba(iflightmod
Flight
p6415
(dp6416
g3
S'Dubai'
p6417
sg5
I1384433100
sg6
S'EK135'
p6418
sg8
I1384409100
sg9
S'B77W'
p6419
sg11
S'Emirates'
p6420
sba(iflightmod
Flight
p6421
(dp6422
g3
S'Zurich'
p6423
sg5
I1384434000
sg6
S'LX1662'
p6424
sg8
I1384430100
sg9
S'A319'
p6425
sg11
S'Swiss'
p6426
sba(iflightmod
Flight
p6427
(dp6428
g3
S'Nantes'
p6429
sg5
I1384434600
sg6
S'V72212'
p6430
sg8
I1384427700
sg9
S'B712'
p6431
sg11
S'Volotea'
p6432
sba(iflightmod
Flight
p6433
(dp6434
g3
S'Bilbao'
p6435
sg5
I1384435200
sg6
S'V71345'
p6436
sg8
I1384427400
sg9
S'B712'
p6437
sg11
S'Volotea'
p6438
sba(iflightmod
Flight
p6439
(dp6440
g3
S'Paris'
p6441
sg5
I1384436400
sg6
S'AF1726'
p6442
sg8
I1384430400
sg9
S'A319'
p6443
sg11
S'Air France'
p6444
sba(iflightmod
Flight
p6445
(dp6446
g3
S'Bordeaux'
p6447
sg5
I1384437000
sg6
S'V71347'
p6448
sg8
I1384430400
sg9
S'B712'
p6449
sg11
S'Volotea'
p6450
sba(iflightmod
Flight
p6451
(dp6452
g3
S'Naples'
p6453
sg5
I1384438200
sg6
S'U2995'
p6454
sg8
I1384433700
sg9
S'A319'
p6455
sg11
S'EasyJet'
p6456
sba(iflightmod
Flight
p6457
(dp6458
g3
S'London'
p6459
sg5
I1384439100
sg6
S'BA2584'
p6460
sg8
I1384431900
sg9
S'A319'
p6461
sg11
S'British Airways'
p6462
sba(iflightmod
Flight
p6463
(dp6464
g3
S'Rome'
p6465
sg5
I1384440000
sg6
S'AZ1475'
p6466
sg8
I1384436100
sg9
S'A320'
p6467
sg11
S'Alitalia'
p6468
sba(iflightmod
Flight
p6469
(dp6470
g3
S'Lyon'
p6471
sg5
I1384442100
sg6
S'U24465'
p6472
sg8
I1384437600
sg9
S'A319'
p6473
sg11
S'EasyJet'
p6474
sba(iflightmod
Flight
p6475
(dp6476
g3
S'Munich'
p6477
sg5
I1384443300
sg6
S'EN8204'
p6478
sg8
I1384439700
sg9
S'E95'
p6479
sg11
S'Air Dolomiti'
p6480
sba(iflightmod
Flight
p6481
(dp6482
g3
S'Lyon'
p6483
sg5
I1384444200
sg6
S'A54526'
p6484
sg8
I1384439400
sg9
S'E145'
p6485
sg11
S'HOP!'
p6486
sba(iflightmod
Flight
p6487
(dp6488
g3
S'Amsterdam'
p6489
sg5
I1384444500
sg6
S'KL1655'
p6490
sg8
I1384438200
sg9
S'B737'
p6491
sg11
S'KLM'
p6492
sba(iflightmod
Flight
p6493
(dp6494
g3
S'London'
p6495
sg5
I1384446600
sg6
S'U25267'
p6496
sg8
I1384439100
sg9
S'A319'
p6497
sg11
S'EasyJet'
p6498
sba(iflightmod
Flight
p6499
(dp6500
g3
S'Paris'
p6501
sg5
I1384446900
sg6
S'AF1226'
p6502
sg8
I1384440900
sg9
S'A318'
p6503
sg11
S'Air France'
p6504
sba(iflightmod
Flight
p6505
(dp6506
g3
S'Bari'
p6507
sg5
I1384448100
sg6
S'V71235'
p6508
sg8
I1384443600
sg9
S'B717'
p6509
sg11
S'Volotea'
p6510
sba(iflightmod
Flight
p6511
(dp6512
g3
S'Istanbul'
p6513
sg5
I1384448400
sg6
S'TK1869'
p6514
sg8
I1384439100
sg9
S'A320'
p6515
sg11
S'Turkish Airlines'
p6516
sba(iflightmod
Flight
p6517
(dp6518
g3
S'Frankfurt'
p6519
sg5
I1384449000
sg6
S'LH330'
p6520
sg8
I1384444200
sg9
S'32A'
p6521
sg11
S'Lufthansa'
p6522
sba(iflightmod
Flight
p6523
(dp6524
g3
S'Vienna'
p6525
sg5
I1384450200
sg6
S'OS529'
p6526
sg8
I1384446000
sg9
S'DH4'
p6527
sg11
S'Austrian Airlines'
p6528
sba(iflightmod
Flight
p6529
(dp6530
g3
S'London'
p6531
sg5
I1384451400
sg6
S'BA2586'
p6532
sg8
I1384444500
sg9
S'B734'
p6533
sg11
S'British Airways'
p6534
sba(iflightmod
Flight
p6535
(dp6536
g3
S'Naples'
p6537
sg5
I1384451400
sg6
S'U2997'
p6538
sg8
I1384446900
sg9
S'A319'
p6539
sg11
S'EasyJet'
p6540
sba(iflightmod
Flight
p6541
(dp6542
g3
S'Zurich'
p6543
sg5
I1384451400
sg6
S'LX1664'
p6544
sg8
I1384447200
sg9
S'F100'
p6545
sg11
S'Swiss'
p6546
sba(iflightmod
Flight
p6547
(dp6548
g3
S'Lamezia Terme'
p6549
sg5
I1384451700
sg6
S'AP729'
p6550
sg8
I1384446300
sg9
S'A320'
p6551
sg11
S'Air One'
p6552
sba(iflightmod
Flight
p6553
(dp6554
g3
S'Rome'
p6555
sg5
I1384452300
sg6
S'AZ1467'
p6556
sg8
I1384448400
sg9
S'E75'
p6557
sg11
S'Alitalia'
p6558
sba(iflightmod
Flight
p6559
(dp6560
g3
S'Madrid'
p6561
sg5
I1384452900
sg6
S'IB3246'
p6562
sg8
I1384444200
sg9
S'A321'
p6563
sg11
S'Iberia'
p6564
sba(iflightmod
Flight
p6565
(dp6566
g3
S'Paris'
p6567
sg5
I1385148600
sg6
S'U23795'
p6568
sg8
I1385142600
sg9
S'A319'
p6569
sg11
S'EasyJet'
p6570
sba(iflightmod
Flight
p6571
(dp6572
g3
S'Lisbon'
p6573
sg5
I1385148900
sg6
S'U27681'
p6574
sg8
I1385138400
sg9
S'A319'
p6575
sg11
S'EasyJet'
p6576
sba(iflightmod
Flight
p6577
(dp6578
g3
S'Rome'
p6579
sg5
I1385151900
sg6
S'AZ1483'
p6580
sg8
I1385148000
sg9
S'A320'
p6581
sg11
S'Alitalia'
p6582
sba(iflightmod
Flight
p6583
(dp6584
g3
S'Vienna'
p6585
sg5
I1385153100
sg6
S'OS527'
p6586
sg8
I1385148900
sg9
S'DH4'
p6587
sg11
S'Austrian Airlines'
p6588
sba(iflightmod
Flight
p6589
(dp6590
g3
S'Moscow'
p6591
sg5
I1385154000
sg6
S'SU2422'
p6592
sg8
I1385141700
sg9
S'A320'
p6593
sg11
S'Aeroflot'
p6594
sba(iflightmod
Flight
p6595
(dp6596
g3
S'Paris'
p6597
sg5
I1385154600
sg6
S'AF1326'
p6598
sg8
I1385148600
sg9
S'A319'
p6599
sg11
S'Air France'
p6600
sba(iflightmod
Flight
p6601
(dp6602
g3
S'Amsterdam'
p6603
sg5
I1385155200
sg6
S'KL1659'
p6604
sg8
I1385148900
sg9
S'B737'
p6605
sg11
S'KLM'
p6606
sba(iflightmod
Flight
p6607
(dp6608
g3
S'Rome'
p6609
sg5
I1385155500
sg6
S'AZ1473'
p6610
sg8
I1385151600
sg9
S'32S'
p6611
sg11
S'Alitalia'
p6612
sba(iflightmod
Flight
p6613
(dp6614
g3
S'Munich'
p6615
sg5
I1385155500
sg6
S'EN8206'
p6616
sg8
I1385151900
sg9
S'E95'
p6617
sg11
S'Air Dolomiti'
p6618
sba(iflightmod
Flight
p6619
(dp6620
g3
S'Brussels'
p6621
sg5
I1385156100
sg6
S'SN3207'
p6622
sg8
I1385149800
sg9
S'AR1'
p6623
sg11
S'Brussels Airlines'
p6624
sba(iflightmod
Flight
p6625
(dp6626
g3
S'Frankfurt'
p6627
sg5
I1385158500
sg6
S'LH332'
p6628
sg8
I1385153700
sg9
S'A320'
p6629
sg11
S'Lufthansa'
p6630
sba(iflightmod
Flight
p6631
(dp6632
g3
S'Catania'
p6633
sg5
I1385159100
sg6
S'AP872'
p6634
sg8
I1385153100
sg9
S'A320'
p6635
sg11
S'Air One'
p6636
sba(iflightmod
Flight
p6637
(dp6638
g3
S'Catania'
p6639
sg5
I1385159700
sg6
S'V71265'
p6640
sg8
I1385153400
sg9
S'B717'
p6641
sg11
S'Volotea'
p6642
sba(iflightmod
Flight
p6643
(dp6644
g3
S'Casablanca'
p6645
sg5
I1385184000
sg6
S'3O2477'
p6646
sg8
I1385169300
sg9
S'A320'
p6647
sg11
S'Air Arabia Maroc'
p6648
sba(iflightmod
Flight
p6649
(dp6650
g3
S'Tirana'
p6651
sg5
I1385187900
sg6
S'LZ675'
p6652
sg8
I1385182800
sg9
S'A319'
p6653
sg11
S'Belle Air'
p6654
sba(iflightmod
Flight
p6655
(dp6656
g3
S'Munich'
p6657
sg5
I1385190300
sg6
S'EN8200'
p6658
sg8
I1385186700
sg9
S'E95'
p6659
sg11
S'Air Dolomiti'
p6660
sba(iflightmod
Flight
p6661
(dp6662
g3
S'Zurich'
p6663
sg5
I1385192400
sg6
S'LX1660'
p6664
sg8
I1385188200
sg9
S'AR1'
p6665
sg11
S'Swiss'
p6666
sba(iflightmod
Flight
p6667
(dp6668
g3
S'Paris'
p6669
sg5
I1385193600
sg6
S'AF1126'
p6670
sg8
I1385187600
sg9
S'A318'
p6671
sg11
S'Air France'
p6672
sba(iflightmod
Flight
p6673
(dp6674
g3
S'Paris'
p6675
sg5
I1385193600
sg6
S'U24291'
p6676
sg8
I1385187600
sg9
S'A320'
p6677
sg11
S'EasyJet'
p6678
sba(iflightmod
Flight
p6679
(dp6680
g3
S'Philadelphia'
p6681
sg5
I1385194500
sg6
S'US714'
p6682
sg8
I1385163900
sg9
S'B762'
p6683
sg11
S'US Airways'
p6684
sba(iflightmod
Flight
p6685
(dp6686
g3
S'Rome'
p6687
sg5
I1385195100
sg6
S'AZ1471'
p6688
sg8
I1385191200
sg9
S'E75'
p6689
sg11
S'Alitalia'
p6690
sba(iflightmod
Flight
p6691
(dp6692
g3
S'Istanbul'
p6693
sg5
I1385195100
sg6
S'TK1867'
p6694
sg8
I1385186100
sg9
S'A321'
p6695
sg11
S'Turkish Airlines'
p6696
sba(iflightmod
Flight
p6697
(dp6698
g3
S'Naples'
p6699
sg5
I1385196900
sg6
S'U2991'
p6700
sg8
I1385192400
sg9
S'A319'
p6701
sg11
S'EasyJet'
p6702
sba(iflightmod
Flight
p6703
(dp6704
g3
S'Vienna'
p6705
sg5
I1385198400
sg6
S'OS521'
p6706
sg8
I1385194200
sg9
S'DH4'
p6707
sg11
S'Austrian Airlines'
p6708
sba(iflightmod
Flight
p6709
(dp6710
g3
S'Frankfurt'
p6711
sg5
I1385198700
sg6
S'LH324'
p6712
sg8
I1385193900
sg9
S'A320'
p6713
sg11
S'Lufthansa'
p6714
sba(iflightmod
Flight
p6715
(dp6716
g3
S'Vienna'
p6717
sg5
I1385153100
sg6
S'OS527'
p6718
sg8
I1385148900
sg9
S'DH8D'
p6719
sg11
S'Austrian Airlines'
p6720
sba(iflightmod
Flight
p6721
(dp6722
g3
S'Reggio Calabria'
p6723
sg5
I1385199600
sg6
S'V71249'
p6724
sg8
I1385193900
sg9
S'B717'
p6725
sg11
S'Volotea'
p6726
sba(iflightmod
Flight
p6727
(dp6728
g3
S'London'
p6729
sg5
I1385200200
sg6
S'BA2582'
p6730
sg8
I1385192700
sg9
S'B734'
p6731
sg11
S'British Airways'
p6732
sba(iflightmod
Flight
p6733
(dp6734
g3
S'Philadelphia'
p6735
sg5
I1385194500
sg6
S'US714'
p6736
sg8
I1385163900
sg9
S'B752'
p6737
sg11
S'US Airways'
p6738
sba(iflightmod
Flight
p6739
(dp6740
g3
S'Dublin'
p6741
sg5
I1385200800
sg6
S'EI422'
p6742
sg8
I1385191200
sg9
S'A320'
p6743
sg11
S'Aer Lingus'
p6744
sba(iflightmod
Flight
p6745
(dp6746
g3
S'Catania'
p6747
sg5
I1385201400
sg6
S'AP870'
p6748
sg8
I1385195400
sg9
S'A320'
p6749
sg11
S'Air One'
p6750
sba(iflightmod
Flight
p6751
(dp6752
g3
S'Rome'
p6753
sg5
I1385201700
sg6
S'AZ1463'
p6754
sg8
I1385197800
sg9
S'A320'
p6755
sg11
S'Alitalia'
p6756
sba(iflightmod
Flight
p6757
(dp6758
g3
S'Lyon'
p6759
sg5
I1385202000
sg6
S'A54522'
p6760
sg8
I1385197200
sg9
S'CR7'
p6761
sg11
S'HOP!'
p6762
sba(iflightmod
Flight
p6763
(dp6764
g3
S'Madrid'
p6765
sg5
I1385202000
sg6
S'IB3242'
p6766
sg8
I1385193000
sg9
S'A321'
p6767
sg11
S'Iberia'
p6768
sba(iflightmod
Flight
p6769
(dp6770
g3
S'Berlin'
p6771
sg5
I1385203200
sg6
S'U24651'
p6772
sg8
I1385196900
sg9
S'A319'
p6773
sg11
S'EasyJet'
p6774
sba(iflightmod
Flight
p6775
(dp6776
g3
S'Amsterdam'
p6777
sg5
I1385203500
sg6
S'KL1653'
p6778
sg8
I1385196900
sg9
S'E190'
p6779
sg11
S'KLM'
p6780
sba(iflightmod
Flight
p6781
(dp6782
g3
S'Brussels'
p6783
sg5
I1385203500
sg6
S'SN3201'
p6784
sg8
I1385197500
sg9
S'AR1'
p6785
sg11
S'Brussels Airlines'
p6786
sba(iflightmod
Flight
p6787
(dp6788
g3
S'London'
p6789
sg5
I1385203500
sg6
S'U25263'
p6790
sg8
I1385196000
sg9
S'A319'
p6791
sg11
S'EasyJet'
p6792
sba(iflightmod
Flight
p6793
(dp6794
g3
S'Lisbon'
p6795
sg5
I1385203500
sg6
S'TP874'
p6796
sg8
I1385193000
sg9
S'A319'
p6797
sg11
S'TAP Portugal'
p6798
sba(iflightmod
Flight
p6799
(dp6800
g3
S'Frankfurt'
p6801
sg5
I1385203800
sg6
S'LH326'
p6802
sg8
I1385199000
sg9
S'A319'
p6803
sg11
S'Lufthansa'
p6804
sba(iflightmod
Flight
p6805
(dp6806
g3
S'London'
p6807
sg5
I1385203800
sg6
S'BA578'
p6808
sg8
I1385196300
sg9
S'A319'
p6809
sg11
S'British Airways'
p6810
sba(iflightmod
Flight
p6811
(dp6812
g3
S'Munich'
p6813
sg5
I1385190300
sg6
S'EN8200'
p6814
sg8
I1385186700
sg9
S'E190'
p6815
sg11
S'Air Dolomiti'
p6816
sba(iflightmod
Flight
p6817
(dp6818
g3
S'Zurich'
p6819
sg5
I1385192400
sg6
S'LX1660'
p6820
sg8
I1385188200
sg9
S'RJ1H'
p6821
sg11
S'Swiss'
p6822
sba(iflightmod
Flight
p6823
(dp6824
g3
S'Moscow'
p6825
sg5
I1385203800
sg6
S'SU2596'
p6826
sg8
I1385191500
sg9
S'A320'
p6827
sg11
S'Aeroflot'
p6828
sba(iflightmod
Flight
p6829
(dp6830
g3
S'Munich'
p6831
sg5
I1385204100
sg6
S'EN8202'
p6832
sg8
I1385200500
sg9
S'E95'
p6833
sg11
S'Air Dolomiti'
p6834
sba(iflightmod
Flight
p6835
(dp6836
g3
S'Rome'
p6837
sg5
I1385195100
sg6
S'AZ1471'
p6838
sg8
I1385191200
sg9
S'E170'
p6839
sg11
S'Alitalia'
p6840
sba(iflightmod
Flight
p6841
(dp6842
g3
S'Frankfurt'
p6843
sg5
I1385198700
sg6
S'LH324'
p6844
sg8
I1385193900
sg9
S'A321'
p6845
sg11
S'Lufthansa'
p6846
sba(iflightmod
Flight
p6847
(dp6848
g3
S'Barcelona'
p6849
sg5
I1385205600
sg6
S'VY6400'
p6850
sg8
I1385199300
sg9
S'A320'
p6851
sg11
S'Vueling'
p6852
sba(iflightmod
Flight
p6853
(dp6854
g3
S'Vienna'
p6855
sg5
I1385198400
sg6
S'OS521'
p6856
sg8
I1385194200
sg9
S'DH8D'
p6857
sg11
S'Austrian Airlines'
p6858
sba(iflightmod
Flight
p6859
(dp6860
g3
S'Reggio Calabria'
p6861
sg5
I1385199600
sg6
S'V71249'
p6862
sg8
I1385193900
sg9
S'B712'
p6863
sg11
S'Volotea'
p6864
sba(iflightmod
Flight
p6865
(dp6866
g3
S'Paris'
p6867
sg5
I1385207700
sg6
S'U23793'
p6868
sg8
I1385201700
sg9
S'A319'
p6869
sg11
S'EasyJet'
p6870
sba(iflightmod
Flight
p6871
(dp6872
g3
S'Istanbul'
p6873
sg5
I1385209200
sg6
S'TK1871'
p6874
sg8
I1385200200
sg9
S'B739'
p6875
sg11
S'Turkish Airlines'
p6876
sba(iflightmod
Flight
p6877
(dp6878
g3
S'Marseille'
p6879
sg5
I1385209500
sg6
S'AF4332'
p6880
sg8
I1385205000
sg9
S'A319'
p6881
sg11
S'Air France'
p6882
sba(iflightmod
Flight
p6883
(dp6884
g3
S'Frankfurt'
p6885
sg5
I1385210100
sg6
S'LH328'
p6886
sg8
I1385205300
sg9
S'A320'
p6887
sg11
S'Lufthansa'
p6888
sba(iflightmod
Flight
p6889
(dp6890
g3
S'Doha'
p6891
sg5
I1385210400
sg6
S'QR129'
p6892
sg8
I1385186700
sg9
S'A320'
p6893
sg11
S'Qatar Airways'
p6894
sba(iflightmod
Flight
p6895
(dp6896
g3
S'Lyon'
p6897
sg5
I1385202000
sg6
S'A54522'
p6898
sg8
I1385197200
sg9
S'CRJ7'
p6899
sg11
S'HOP!'
p6900
sba(iflightmod
Flight
p6901
(dp6902
g3
S'Brussels'
p6903
sg5
I1385203500
sg6
S'SN3201'
p6904
sg8
I1385197500
sg9
S'RJ1H'
p6905
sg11
S'Brussels Airlines'
p6906
sba(iflightmod
Flight
p6907
(dp6908
g3
S'Dubai'
p6909
sg5
I1385210700
sg6
S'EK135'
p6910
sg8
I1385186700
sg9
S'B77W'
p6911
sg11
S'Emirates'
p6912
sba(iflightmod
Flight
p6913
(dp6914
g3
S'Frankfurt'
p6915
sg5
I1385203800
sg6
S'LH326'
p6916
sg8
I1385199000
sg9
S'A320'
p6917
sg11
S'Lufthansa'
p6918
sba(iflightmod
Flight
p6919
(dp6920
g3
S'Paris'
p6921
sg5
I1385210700
sg6
S'U24293'
p6922
sg8
I1385204700
sg9
S'A320'
p6923
sg11
S'EasyJet'
p6924
sba(iflightmod
Flight
p6925
(dp6926
g3
S'Zurich'
p6927
sg5
I1385211600
sg6
S'LX1662'
p6928
sg8
I1385207700
sg9
S'A319'
p6929
sg11
S'Swiss'
p6930
sba(iflightmod
Flight
p6931
(dp6932
g3
S'Bari'
p6933
sg5
I1385212200
sg6
S'V71235'
p6934
sg8
I1385207400
sg9
S'B717'
p6935
sg11
S'Volotea'
p6936
sba(iflightmod
Flight
p6937
(dp6938
g3
S'Munich'
p6939
sg5
I1385204100
sg6
S'EN8202'
p6940
sg8
I1385200500
sg9
S'E190'
p6941
sg11
S'Air Dolomiti'
p6942
sba(iflightmod
Flight
p6943
(dp6944
g3
S'Paris'
p6945
sg5
I1385214000
sg6
S'AF1726'
p6946
sg8
I1385208000
sg9
S'A319'
p6947
sg11
S'Air France'
p6948
sba(iflightmod
Flight
p6949
(dp6950
g3
S'Moscow'
p6951
sg5
I1385215800
sg6
S'UN393'
p6952
sg8
I1385203800
sg9
S'B738'
p6953
sg11
S'Transaero Airlines'
p6954
sba(iflightmod
Flight
p6955
(dp6956
g3
S'London'
p6957
sg5
I1385216400
sg6
S'BA2584'
p6958
sg8
I1385209200
sg9
S'B734'
p6959
sg11
S'British Airways'
p6960
sba(iflightmod
Flight
p6961
(dp6962
g3
S'Palermo'
p6963
sg5
I1385216400
sg6
S'AP735'
p6964
sg8
I1385211000
sg9
S'A320'
p6965
sg11
S'Air One'
p6966
sba(iflightmod
Flight
p6967
(dp6968
g3
S'Rome'
p6969
sg5
I1385217600
sg6
S'AZ1475'
p6970
sg8
I1385213700
sg9
S'A320'
p6971
sg11
S'Alitalia'
p6972
sba(iflightmod
Flight
p6973
(dp6974
g3
S'London'
p6975
sg5
I1385220000
sg6
S'U25267'
p6976
sg8
I1385212500
sg9
S'A319'
p6977
sg11
S'EasyJet'
p6978
sba(iflightmod
Flight
p6979
(dp6980
g3
S'Munich'
p6981
sg5
I1385220900
sg6
S'EN8204'
p6982
sg8
I1385217300
sg9
S'E95'
p6983
sg11
S'Air Dolomiti'
p6984
sba(iflightmod
Flight
p6985
(dp6986
g3
S'Amsterdam'
p6987
sg5
I1385222100
sg6
S'KL1655'
p6988
sg8
I1385215800
sg9
S'B737'
p6989
sg11
S'KLM'
p6990
sba(iflightmod
Flight
p6991
(dp6992
g3
S'Paris'
p6993
sg5
I1385224500
sg6
S'AF1226'
p6994
sg8
I1385218500
sg9
S'A319'
p6995
sg11
S'Air France'
p6996
sba(iflightmod
Flight
p6997
(dp6998
g3
S'Istanbul'
p6999
sg5
I1385226000
sg6
S'TK1869'
p7000
sg8
I1385216700
sg9
S'A320'
p7001
sg11
S'Turkish Airlines'
p7002
sba(iflightmod
Flight
p7003
(dp7004
g3
S'Naples'
p7005
sg5
I1385226000
sg6
S'U2997'
p7006
sg8
I1385221500
sg9
S'A319'
p7007
sg11
S'EasyJet'
p7008
sba(iflightmod
Flight
p7009
(dp7010
g3
S'Frankfurt'
p7011
sg5
I1385226600
sg6
S'LH330'
p7012
sg8
I1385221800
sg9
S'A320'
p7013
sg11
S'Lufthansa'
p7014
sba(iflightmod
Flight
p7015
(dp7016
g3
S'Vienna'
p7017
sg5
I1385227800
sg6
S'OS529'
p7018
sg8
I1385223600
sg9
S'DH4'
p7019
sg11
S'Austrian Airlines'
p7020
sba(iflightmod
Flight
p7021
(dp7022
g3
S'Zurich'
p7023
sg5
I1385229000
sg6
S'LX1664'
p7024
sg8
I1385224800
sg9
S'F100'
p7025
sg11
S'Swiss'
p7026
sba(iflightmod
Flight
p7027
(dp7028
g3
S'Rome'
p7029
sg5
I1385229900
sg6
S'AZ1467'
p7030
sg8
I1385226000
sg9
S'E75'
p7031
sg11
S'Alitalia'
p7032
sba(iflightmod
Flight
p7033
(dp7034
g3
S'London'
p7035
sg5
I1385230200
sg6
S'BA2586'
p7036
sg8
I1385223300
sg9
S'B734'
p7037
sg11
S'British Airways'
p7038
sba(iflightmod
Flight
p7039
(dp7040
g3
S'Bari'
p7041
sg5
I1385212200
sg6
S'V71235'
p7042
sg8
I1385207400
sg9
S'B712'
p7043
sg11
S'Volotea'
p7044
sba.