(lp0
(iflightmod
Flight
p1
(dp2
S'origin'
p3
S'Frankfurt'
p4
sS'arrival'
p5
I1386108900
sS'flight'
p6
S'LH332'
p7
sS'departure'
p8
I1386104100
sS'aircraft'
p9
S'A321'
p10
sS'airline'
p11
S'Lufthansa'
p12
sba(iflightmod
Flight
p13
(dp14
g3
S'Catania'
p15
sg5
I1386110100
sg6
S'V71265'
p16
sg8
I1386103800
sg9
S'B712'
p17
sg11
S'Volotea'
p18
sba(iflightmod
Flight
p19
(dp20
g3
S'Chisinau'
p21
sg5
I1386140400
sg6
S'V3260'
p22
sg8
I1386132300
sg9
S'B733'
p23
sg11
S'Carpatair'
p24
sba(iflightmod
Flight
p25
(dp26
g3
S'Munich'
p27
sg5
I1386140700
sg6
S'EN8200'
p28
sg8
I1386137100
sg9
S'E95'
p29
sg11
S'Air Dolomiti'
p30
sba(iflightmod
Flight
p31
(dp32
g3
S'Amsterdam'
p33
sg5
I1386142800
sg6
S'HV5495'
p34
sg8
I1386136500
sg9
S'B737'
p35
sg11
S'Transavia'
p36
sba(iflightmod
Flight
p37
(dp38
g3
S'Zurich'
p39
sg5
I1386142800
sg6
S'LX1660'
p40
sg8
I1386138600
sg9
S'AR1'
p41
sg11
S'Swiss'
p42
sba(iflightmod
Flight
p43
(dp44
g3
S'Paris'
p45
sg5
I1386144000
sg6
S'AF1126'
p46
sg8
I1386138000
sg9
S'A318'
p47
sg11
S'Air France'
p48
sba(iflightmod
Flight
p49
(dp50
g3
S'Rome'
p51
sg5
I1386145500
sg6
S'AZ1471'
p52
sg8
I1386141600
sg9
S'E190'
p53
sg11
S'Alitalia'
p54
sba(iflightmod
Flight
p55
(dp56
g3
S'Istanbul'
p57
sg5
I1386145500
sg6
S'TK1867'
p58
sg8
I1386136500
sg9
S'A321'
p59
sg11
S'Turkish Airlines'
p60
sba(iflightmod
Flight
p61
(dp62
g3
S'Naples'
p63
sg5
I1386147300
sg6
S'U2991'
p64
sg8
I1386142800
sg9
S'A319'
p65
sg11
S'EasyJet'
p66
sba(iflightmod
Flight
p67
(dp68
g3
S'Tunis'
p69
sg5
I1386148200
sg6
S'TU472'
p70
sg8
I1386142200
sg9
S'32A'
p71
sg11
S'Tunisair'
p72
sba(iflightmod
Flight
p73
(dp74
g3
S'Frankfurt'
p75
sg5
I1386148500
sg6
S'LH324'
p76
sg8
I1386143700
sg9
S'32A'
p77
sg11
S'Lufthansa'
p78
sba(iflightmod
Flight
p79
(dp80
g3
S'Lyon'
p81
sg5
I1386148500
sg6
S'A54522'
p82
sg8
I1386143700
sg9
S'CR7'
p83
sg11
S'HOP!'
p84
sba(iflightmod
Flight
p85
(dp86
g3
S'Vienna'
p87
sg5
I1386148800
sg6
S'OS521'
p88
sg8
I1386144600
sg9
S'DH4'
p89
sg11
S'Austrian Airlines'
p90
sba(iflightmod
Flight
p91
(dp92
g3
S'Catania'
p93
sg5
I1386149700
sg6
S'AP870'
p94
sg8
I1386143700
sg9
S'A320'
p95
sg11
S'Air One'
p96
sba(iflightmod
Flight
p97
(dp98
g3
S'London'
p99
sg5
I1386150600
sg6
S'BA2582'
p100
sg8
I1386143100
sg9
S'B734'
p101
sg11
S'British Airways'
p102
sba(iflightmod
Flight
p103
(dp104
g3
S'Rome'
p105
sg5
I1386152100
sg6
S'AZ1463'
p106
sg8
I1386148200
sg9
S'A320'
p107
sg11
S'Alitalia'
p108
sba(iflightmod
Flight
p109
(dp110
g3
S'Madrid'
p111
sg5
I1386152400
sg6
S'IB3242'
p112
sg8
I1386143400
sg9
S'A321'
p113
sg11
S'Iberia'
p114
sba(iflightmod
Flight
p115
(dp116
g3
S'Marseille'
p117
sg5
I1386152700
sg6
S'AF4332'
p118
sg8
I1386148200
sg9
S'A320'
p119
sg11
S'Air France'
p120
sba(iflightmod
Flight
p121
(dp122
g3
S'Amsterdam'
p123
sg5
I1386153900
sg6
S'KL1653'
p124
sg8
I1386147300
sg9
S'B737'
p125
sg11
S'KLM'
p126
sba(iflightmod
Flight
p127
(dp128
g3
S'Brussels'
p129
sg5
I1386153900
sg6
S'SN3201'
p130
sg8
I1386147900
sg9
S'AR1'
p131
sg11
S'Brussels Airlines'
p132
sba(iflightmod
Flight
p133
(dp134
g3
S'Frankfurt'
p135
sg5
I1386154200
sg6
S'LH326'
p136
sg8
I1386149400
sg9
S'32A'
p137
sg11
S'Lufthansa'
p138
sba(iflightmod
Flight
p139
(dp140
g3
S'London'
p141
sg5
I1386154200
sg6
S'BA578'
p142
sg8
I1386146700
sg9
S'A319'
p143
sg11
S'British Airways'
p144
sba(iflightmod
Flight
p145
(dp146
g3
S'Moscow'
p147
sg5
I1386154200
sg6
S'SU2596'
p148
sg8
I1386141900
sg9
S'A320'
p149
sg11
S'Aeroflot'
p150
sba(iflightmod
Flight
p151
(dp152
g3
S'Paris'
p153
sg5
I1386154800
sg6
S'AF1426'
p154
sg8
I1386148800
sg9
S'A318'
p155
sg11
S'Air France'
p156
sba(iflightmod
Flight
p157
(dp158
g3
S'Rome'
p159
sg5
I1386266700
sg6
S'AZ1467'
p160
sg8
I1386262800
sg9
S'E170'
p161
sg11
S'Alitalia'
p162
sba(iflightmod
Flight
p163
(dp164
g3
S'Madrid'
p165
sg5
I1386267300
sg6
S'IB3246'
p166
sg8
I1386258600
sg9
S'A321'
p167
sg11
S'Iberia'
p168
sba(iflightmod
Flight
p169
(dp170
g3
S'Manchester'
p171
sg5
I1386267300
sg6
S'U21863'
p172
sg8
I1386258300
sg9
S'A319'
p173
sg11
S'EasyJet'
p174
sba(iflightmod
Flight
p175
(dp176
g3
S'Paris'
p177
sg5
I1386267600
sg6
S'U24295'
p178
sg8
I1386261600
sg9
S'A320'
p179
sg11
S'EasyJet'
p180
sba(iflightmod
Flight
p181
(dp182
g3
S'Tirana'
p183
sg5
I1386268200
sg6
S'BV3225'
p184
sg8
I1386262800
sg9
S'B733'
p185
sg11
S'Blue Panorama Airlines'
p186
sba(iflightmod
Flight
p187
(dp188
g3
S'Barcelona'
p189
sg5
I1386269100
sg6
S'VY6402'
p190
sg8
I1386262800
sg9
S'A320'
p191
sg11
S'Vueling'
p192
sba(iflightmod
Flight
p193
(dp194
g3
S'Paris'
p195
sg5
I1386269700
sg6
S'TO3342'
p196
sg8
I1386263400
sg9
S'B738'
p197
sg11
S'Transavia France'
p198
sba(iflightmod
Flight
p199
(dp200
g3
S'Rome'
p201
sg5
I1386270300
sg6
S'AZ1481'
p202
sg8
I1386266400
sg9
S'A319'
p203
sg11
S'Alitalia'
p204
sba(iflightmod
Flight
p205
(dp206
g3
S'Paris'
p207
sg5
I1386271800
sg6
S'U23795'
p208
sg8
I1386265800
sg9
S'A319'
p209
sg11
S'EasyJet'
p210
sba(iflightmod
Flight
p211
(dp212
g3
S'Mulhouse'
p213
sg5
I1386272100
sg6
S'U21163'
p214
sg8
I1386268200
sg9
S'A319'
p215
sg11
S'EasyJet'
p216
sba(iflightmod
Flight
p217
(dp218
g3
S'Rome'
p219
sg5
I1386275100
sg6
S'AZ1483'
p220
sg8
I1386271200
sg9
S'A320'
p221
sg11
S'Alitalia'
p222
sba(iflightmod
Flight
p223
(dp224
g3
S'Vienna'
p225
sg5
I1386276300
sg6
S'OS527'
p226
sg8
I1386272100
sg9
S'DH4'
p227
sg11
S'Austrian Airlines'
p228
sba(iflightmod
Flight
p229
(dp230
g3
S'Moscow'
p231
sg5
I1386277200
sg6
S'SU2422'
p232
sg8
I1386264900
sg9
S'A319'
p233
sg11
S'Aeroflot'
p234
sba(iflightmod
Flight
p235
(dp236
g3
S'Paris'
p237
sg5
I1386277800
sg6
S'AF1326'
p238
sg8
I1386271800
sg9
S'A318'
p239
sg11
S'Air France'
p240
sba(iflightmod
Flight
p241
(dp242
g3
S'Catania'
p243
sg5
I1386278100
sg6
S'V71265'
p244
sg8
I1386271800
sg9
S'B717'
p245
sg11
S'Volotea'
p246
sba(iflightmod
Flight
p247
(dp248
g3
S'Amsterdam'
p249
sg5
I1386278400
sg6
S'KL1659'
p250
sg8
I1386272100
sg9
S'B737'
p251
sg11
S'KLM'
p252
sba(iflightmod
Flight
p253
(dp254
g3
S'Rome'
p255
sg5
I1386278700
sg6
S'AZ1473'
p256
sg8
I1386274800
sg9
S'A319'
p257
sg11
S'Alitalia'
p258
sba(iflightmod
Flight
p259
(dp260
g3
S'Munich'
p261
sg5
I1386278700
sg6
S'EN8206'
p262
sg8
I1386275100
sg9
S'E95'
p263
sg11
S'Air Dolomiti'
p264
sba(iflightmod
Flight
p265
(dp266
g3
S'Brussels'
p267
sg5
I1386279300
sg6
S'SN3207'
p268
sg8
I1386273000
sg9
S'AR1'
p269
sg11
S'Brussels Airlines'
p270
sba(iflightmod
Flight
p271
(dp272
g3
S'Frankfurt'
p273
sg5
I1386281700
sg6
S'LH332'
p274
sg8
I1386276900
sg9
S'32A'
p275
sg11
S'Lufthansa'
p276
sba(iflightmod
Flight
p277
(dp278
g3
S'Tirana'
p279
sg5
I1386311100
sg6
S'LZ675'
p280
sg8
I1386306000
sg9
S'A319'
p281
sg11
S'Belle Air'
p282
sba(iflightmod
Flight
p283
(dp284
g3
S'Chisinau'
p285
sg5
I1386313200
sg6
S'V3260'
p286
sg8
I1386305100
sg9
S'B733'
p287
sg11
S'Carpatair'
p288
sba(iflightmod
Flight
p289
(dp290
g3
S'Munich'
p291
sg5
I1386313500
sg6
S'EN8200'
p292
sg8
I1386309900
sg9
S'E95'
p293
sg11
S'Air Dolomiti'
p294
sba(iflightmod
Flight
p295
(dp296
g3
S'Paris'
p297
sg5
I1386314100
sg6
S'TO3342'
p298
sg8
I1386307800
sg9
S'B738'
p299
sg11
S'Transavia France'
p300
sba(iflightmod
Flight
p301
(dp302
g3
S'Amsterdam'
p303
sg5
I1386315000
sg6
S'HV5495'
p304
sg8
I1386308700
sg9
S'B737'
p305
sg11
S'Transavia'
p306
sba(iflightmod
Flight
p307
(dp308
g3
S'Tirana'
p309
sg5
I1386315000
sg6
S'BV3225'
p310
sg8
I1386309600
sg9
S'B737'
p311
sg11
S'Blue Panorama Airlines'
p312
sba(iflightmod
Flight
p313
(dp314
g3
S'Zurich'
p315
sg5
I1386315600
sg6
S'LX1660'
p316
sg8
I1386311400
sg9
S'AR1'
p317
sg11
S'Swiss'
p318
sba(iflightmod
Flight
p319
(dp320
g3
S'Paris'
p321
sg5
I1386316800
sg6
S'U24291'
p322
sg8
I1386310800
sg9
S'A320'
p323
sg11
S'EasyJet'
p324
sba(iflightmod
Flight
p325
(dp326
g3
S'Barcelona'
p327
sg5
I1386317100
sg6
S'VY6404'
p328
sg8
I1386310800
sg9
S'A320'
p329
sg11
S'Vueling'
p330
sba(iflightmod
Flight
p331
(dp332
g3
S'Rome'
p333
sg5
I1386318300
sg6
S'AZ1471'
p334
sg8
I1386314400
sg9
S'A319'
p335
sg11
S'Alitalia'
p336
sba(iflightmod
Flight
p337
(dp338
g3
S'Istanbul'
p339
sg5
I1386318300
sg6
S'TK1867'
p340
sg8
I1386309300
sg9
S'A321'
p341
sg11
S'Turkish Airlines'
p342
sba(iflightmod
Flight
p343
(dp344
g3
S'Naples'
p345
sg5
I1386320100
sg6
S'U2991'
p346
sg8
I1386315600
sg9
S'A319'
p347
sg11
S'EasyJet'
p348
sba(iflightmod
Flight
p349
(dp350
g3
S'Lyon'
p351
sg5
I1386321300
sg6
S'A54522'
p352
sg8
I1386316500
sg9
S'CR7'
p353
sg11
S'HOP!'
p354
sba(iflightmod
Flight
p355
(dp356
g3
S'Vienna'
p357
sg5
I1386321600
sg6
S'OS521'
p358
sg8
I1386317400
sg9
S'DH4'
p359
sg11
S'Austrian Airlines'
p360
sba(iflightmod
Flight
p361
(dp362
g3
S'Frankfurt'
p363
sg5
I1386321900
sg6
S'LH324'
p364
sg8
I1386317100
sg9
S'32A'
p365
sg11
S'Lufthansa'
p366
sba(iflightmod
Flight
p367
(dp368
g3
S'Munich'
p369
sg5
I1386278700
sg6
S'EN8206'
p370
sg8
I1386275100
sg9
S'E190'
p371
sg11
S'Air Dolomiti'
p372
sba(iflightmod
Flight
p373
(dp374
g3
S'Brussels'
p375
sg5
I1386279300
sg6
S'SN3207'
p376
sg8
I1386273000
sg9
S'RJ1H'
p377
sg11
S'Brussels Airlines'
p378
sba(iflightmod
Flight
p379
(dp380
g3
S'Catania'
p381
sg5
I1386322500
sg6
S'AP870'
p382
sg8
I1386316500
sg9
S'A320'
p383
sg11
S'Air One'
p384
sba(iflightmod
Flight
p385
(dp386
g3
S'Frankfurt'
p387
sg5
I1386281700
sg6
S'LH332'
p388
sg8
I1386276900
sg9
S'A320'
p389
sg11
S'Lufthansa'
p390
sba(iflightmod
Flight
p391
(dp392
g3
S'Rome'
p393
sg5
I1386324900
sg6
S'AZ1463'
p394
sg8
I1386321000
sg9
S'A320'
p395
sg11
S'Alitalia'
p396
sba(iflightmod
Flight
p397
(dp398
g3
S'London'
p399
sg5
I1386324900
sg6
S'BA2582'
p400
sg8
I1386317400
sg9
S'B734'
p401
sg11
S'British Airways'
p402
sba(iflightmod
Flight
p403
(dp404
g3
S'Madrid'
p405
sg5
I1386325200
sg6
S'IB3242'
p406
sg8
I1386316200
sg9
S'A321'
p407
sg11
S'Iberia'
p408
sba(iflightmod
Flight
p409
(dp410
g3
S'Berlin'
p411
sg5
I1386326400
sg6
S'U24651'
p412
sg8
I1386320100
sg9
S'A319'
p413
sg11
S'EasyJet'
p414
sba(iflightmod
Flight
p415
(dp416
g3
S'Amsterdam'
p417
sg5
I1386326700
sg6
S'KL1653'
p418
sg8
I1386320100
sg9
S'B737'
p419
sg11
S'KLM'
p420
sba(iflightmod
Flight
p421
(dp422
g3
S'Brussels'
p423
sg5
I1386326700
sg6
S'SN3201'
p424
sg8
I1386320700
sg9
S'AR1'
p425
sg11
S'Brussels Airlines'
p426
sba(iflightmod
Flight
p427
(dp428
g3
S'London'
p429
sg5
I1386326700
sg6
S'U25263'
p430
sg8
I1386319200
sg9
S'A319'
p431
sg11
S'EasyJet'
p432
sba(iflightmod
Flight
p433
(dp434
g3
S'Lisbon'
p435
sg5
I1386326700
sg6
S'TP874'
p436
sg8
I1386316200
sg9
S'A320'
p437
sg11
S'TAP Portugal'
p438
sba(iflightmod
Flight
p439
(dp440
g3
S'Frankfurt'
p441
sg5
I1386327000
sg6
S'LH326'
p442
sg8
I1386322200
sg9
S'B733'
p443
sg11
S'Lufthansa'
p444
sba(iflightmod
Flight
p445
(dp446
g3
S'Chisinau'
p447
sg5
I1386313200
sg6
S'V3260'
p448
sg8
I1386305100
sg9
S'F100'
p449
sg11
S'Carpatair'
p450
sba(iflightmod
Flight
p451
(dp452
g3
S'Tirana'
p453
sg5
I1386315000
sg6
S'BV3225'
p454
sg8
I1386309600
sg9
S'B733'
p455
sg11
S'Blue Panorama Airlines'
p456
sba(iflightmod
Flight
p457
(dp458
g3
S'Munich'
p459
sg5
I1386313500
sg6
S'EN8200'
p460
sg8
I1386309900
sg9
S'E190'
p461
sg11
S'Air Dolomiti'
p462
sba(iflightmod
Flight
p463
(dp464
g3
S'Amsterdam'
p465
sg5
I1386315000
sg6
S'HV5495'
p466
sg8
I1386308700
sg9
S'B738'
p467
sg11
S'Transavia'
p468
sba(iflightmod
Flight
p469
(dp470
g3
S'Zurich'
p471
sg5
I1386315600
sg6
S'LX1660'
p472
sg8
I1386311400
sg9
S'RJ1H'
p473
sg11
S'Swiss'
p474
sba(iflightmod
Flight
p475
(dp476
g3
S'London'
p477
sg5
I1386327000
sg6
S'BA578'
p478
sg8
I1386319500
sg9
S'A319'
p479
sg11
S'British Airways'
p480
sba(iflightmod
Flight
p481
(dp482
g3
S'Moscow'
p483
sg5
I1386327000
sg6
S'SU2596'
p484
sg8
I1386314700
sg9
S'A320'
p485
sg11
S'Aeroflot'
p486
sba(iflightmod
Flight
p487
(dp488
g3
S'Paris'
p489
sg5
I1386327600
sg6
S'AF1426'
p490
sg8
I1386321600
sg9
S'A318'
p491
sg11
S'Air France'
p492
sba(iflightmod
Flight
p493
(dp494
g3
S'Barcelona'
p495
sg5
I1386328800
sg6
S'VY6400'
p496
sg8
I1386322500
sg9
S'A320'
p497
sg11
S'Vueling'
p498
sba(iflightmod
Flight
p499
(dp500
g3
S'Munich'
p501
sg5
I1386329400
sg6
S'EN8202'
p502
sg8
I1386325800
sg9
S'E95'
p503
sg11
S'Air Dolomiti'
p504
sba(iflightmod
Flight
p505
(dp506
g3
S'Dusseldorf'
p507
sg5
I1386329700
sg6
S'AB8862'
p508
sg8
I1386323400
sg9
S'DH4'
p509
sg11
S'Air Berlin'
p510
sba(iflightmod
Flight
p511
(dp512
g3
S'Istanbul'
p513
sg5
I1386332400
sg6
S'TK1871'
p514
sg8
I1386323400
sg9
S'B738'
p515
sg11
S'Turkish Airlines'
p516
sba(iflightmod
Flight
p517
(dp518
g3
S'Lyon'
p519
sg5
I1386321300
sg6
S'A54522'
p520
sg8
I1386316500
sg9
S'CRJ7'
p521
sg11
S'HOP!'
p522
sba(iflightmod
Flight
p523
(dp524
g3
S'Frankfurt'
p525
sg5
I1386321900
sg6
S'LH324'
p526
sg8
I1386317100
sg9
S'A320'
p527
sg11
S'Lufthansa'
p528
sba(iflightmod
Flight
p529
(dp530
g3
S'Rome'
p531
sg5
I1386333300
sg6
S'AZ1465'
p532
sg8
I1386329400
sg9
S'A319'
p533
sg11
S'Alitalia'
p534
sba(iflightmod
Flight
p535
(dp536
g3
S'Frankfurt'
p537
sg5
I1386333300
sg6
S'LH328'
p538
sg8
I1386328500
sg9
S'A319'
p539
sg11
S'Lufthansa'
p540
sba(iflightmod
Flight
p541
(dp542
g3
S'Doha'
p543
sg5
I1386333600
sg6
S'QR129'
p544
sg8
I1386309900
sg9
S'A320'
p545
sg11
S'Qatar Airways'
p546
sba(iflightmod
Flight
p547
(dp548
g3
S'Dubai'
p549
sg5
I1386333900
sg6
S'EK135'
p550
sg8
I1386309900
sg9
S'B77W'
p551
sg11
S'Emirates'
p552
sba(iflightmod
Flight
p553
(dp554
g3
S'Brussels'
p555
sg5
I1386326700
sg6
S'SN3201'
p556
sg8
I1386320700
sg9
S'RJ1H'
p557
sg11
S'Brussels Airlines'
p558
sba(iflightmod
Flight
p559
(dp560
g3
S'Frankfurt'
p561
sg5
I1386327000
sg6
S'LH326'
p562
sg8
I1386322200
sg9
S'B735'
p563
sg11
S'Lufthansa'
p564
sba(iflightmod
Flight
p565
(dp566
g3
S'Zurich'
p567
sg5
I1386334800
sg6
S'LX1662'
p568
sg8
I1386330900
sg9
S'A319'
p569
sg11
S'Swiss'
p570
sba(iflightmod
Flight
p571
(dp572
g3
S'Paris'
p573
sg5
I1386335100
sg6
S'U23793'
p574
sg8
I1386329100
sg9
S'A319'
p575
sg11
S'EasyJet'
p576
sba(iflightmod
Flight
p577
(dp578
g3
S'Berlin'
p579
sg5
I1386335700
sg6
S'AB8990'
p580
sg8
I1386330000
sg9
S'73G'
p581
sg11
S'Air Berlin'
p582
sba(iflightmod
Flight
p583
(dp584
g3
S'London'
p585
sg5
I1386336000
sg6
S'BA8479'
p586
sg8
I1386328500
sg9
S'E170'
p587
sg11
S'British Airways'
p588
sba(iflightmod
Flight
p589
(dp590
g3
S'Prague'
p591
sg5
I1386336900
sg6
S'AP753'
p592
sg8
I1386331800
sg9
S'A320'
p593
sg11
S'Air One'
p594
sba(iflightmod
Flight
p595
(dp596
g3
S'Munich'
p597
sg5
I1386329400
sg6
S'EN8202'
p598
sg8
I1386325800
sg9
S'E190'
p599
sg11
S'Air Dolomiti'
p600
sba(iflightmod
Flight
p601
(dp602
g3
S'Dusseldorf'
p603
sg5
I1386329700
sg6
S'AB8862'
p604
sg8
I1386323400
sg9
S'DH8D'
p605
sg11
S'Air Berlin'
p606
sba(iflightmod
Flight
p607
(dp608
g3
S'Paris'
p609
sg5
I1386337200
sg6
S'AF1726'
p610
sg8
I1386331200
sg9
S'A319'
p611
sg11
S'Air France'
p612
sba(iflightmod
Flight
p613
(dp614
g3
S'Palermo'
p615
sg5
I1386337500
sg6
S'V71219'
p616
sg8
I1386331800
sg9
S'B717'
p617
sg11
S'Volotea'
p618
sba(iflightmod
Flight
p619
(dp620
g3
S'Naples'
p621
sg5
I1386339000
sg6
S'U2995'
p622
sg8
I1386334500
sg9
S'A319'
p623
sg11
S'EasyJet'
p624
sba(iflightmod
Flight
p625
(dp626
g3
S'London'
p627
sg5
I1386339900
sg6
S'BA2584'
p628
sg8
I1386332700
sg9
S'A319'
p629
sg11
S'British Airways'
p630
sba(iflightmod
Flight
p631
(dp632
g3
S'Vienna'
p633
sg5
I1386708300
sg6
S'OS527'
p634
sg8
I1386704100
sg9
S'DH4'
p635
sg11
S'Austrian Airlines'
p636
sba(iflightmod
Flight
p637
(dp638
g3
S'Moscow'
p639
sg5
I1386709200
sg6
S'SU2422'
p640
sg8
I1386696900
sg9
S'A320'
p641
sg11
S'Aeroflot'
p642
sba(iflightmod
Flight
p643
(dp644
g3
S'Paris'
p645
sg5
I1386709800
sg6
S'AF1326'
p646
sg8
I1386703800
sg9
S'A318'
p647
sg11
S'Air France'
p648
sba(iflightmod
Flight
p649
(dp650
g3
S'Amsterdam'
p651
sg5
I1386710400
sg6
S'KL1659'
p652
sg8
I1386704100
sg9
S'B737'
p653
sg11
S'KLM'
p654
sba(iflightmod
Flight
p655
(dp656
g3
S'Rome'
p657
sg5
I1386710700
sg6
S'AZ1473'
p658
sg8
I1386706800
sg9
S'A320'
p659
sg11
S'Alitalia'
p660
sba(iflightmod
Flight
p661
(dp662
g3
S'Munich'
p663
sg5
I1386710700
sg6
S'EN8206'
p664
sg8
I1386707100
sg9
S'E95'
p665
sg11
S'Air Dolomiti'
p666
sba(iflightmod
Flight
p667
(dp668
g3
S'Brussels'
p669
sg5
I1386711300
sg6
S'SN3207'
p670
sg8
I1386705000
sg9
S'RJ1H'
p671
sg11
S'Brussels Airlines'
p672
sba(iflightmod
Flight
p673
(dp674
g3
S'Frankfurt'
p675
sg5
I1386713700
sg6
S'LH332'
p676
sg8
I1386708900
sg9
S'32A'
p677
sg11
S'Lufthansa Cargo'
p678
sba(iflightmod
Flight
p679
(dp680
g3
S'Catania'
p681
sg5
I1386714900
sg6
S'V71265'
p682
sg8
I1386708600
sg9
S'B717'
p683
sg11
S'Volotea'
p684
sba(iflightmod
Flight
p685
(dp686
g3
S'Chisinau'
p687
sg5
I1386745200
sg6
S'V3260'
p688
sg8
I1386737100
sg9
S'B733'
p689
sg11
S'Carpatair'
p690
sba(iflightmod
Flight
p691
(dp692
g3
S'Munich'
p693
sg5
I1386745500
sg6
S'EN8200'
p694
sg8
I1386741900
sg9
S'E95'
p695
sg11
S'Air Dolomiti'
p696
sba(iflightmod
Flight
p697
(dp698
g3
S'Amsterdam'
p699
sg5
I1386747600
sg6
S'HV5495'
p700
sg8
I1386741300
sg9
S'B737'
p701
sg11
S'Transavia'
p702
sba(iflightmod
Flight
p703
(dp704
g3
S'Zurich'
p705
sg5
I1386747600
sg6
S'LX1660'
p706
sg8
I1386743400
sg9
S'AR1'
p707
sg11
S'Swiss'
p708
sba(iflightmod
Flight
p709
(dp710
g3
S'Paris'
p711
sg5
I1386748800
sg6
S'AF1126'
p712
sg8
I1386742800
sg9
S'A318'
p713
sg11
S'Air France'
p714
sba(iflightmod
Flight
p715
(dp716
g3
S'Rome'
p717
sg5
I1386750300
sg6
S'AZ1471'
p718
sg8
I1386746400
sg9
S'E190'
p719
sg11
S'Alitalia'
p720
sba(iflightmod
Flight
p721
(dp722
g3
S'Istanbul'
p723
sg5
I1386750300
sg6
S'TK1867'
p724
sg8
I1386741300
sg9
S'A320'
p725
sg11
S'Turkish Airlines'
p726
sba(iflightmod
Flight
p727
(dp728
g3
S'Naples'
p729
sg5
I1386752100
sg6
S'U2991'
p730
sg8
I1386747600
sg9
S'A319'
p731
sg11
S'EasyJet'
p732
sba(iflightmod
Flight
p733
(dp734
g3
S'Frankfurt'
p735
sg5
I1386753300
sg6
S'LH324'
p736
sg8
I1386748500
sg9
S'32A'
p737
sg11
S'Lufthansa Cargo'
p738
sba(iflightmod
Flight
p739
(dp740
g3
S'Lyon'
p741
sg5
I1386753300
sg6
S'A54522'
p742
sg8
I1386748500
sg9
S'CR7'
p743
sg11
S'HOP!'
p744
sba(iflightmod
Flight
p745
(dp746
g3
S'Vienna'
p747
sg5
I1386753600
sg6
S'OS521'
p748
sg8
I1386749400
sg9
S'DH4'
p749
sg11
S'Austrian Airlines'
p750
sba(iflightmod
Flight
p751
(dp752
g3
S'Catania'
p753
sg5
I1386754500
sg6
S'AP870'
p754
sg8
I1386748500
sg9
S'A320'
p755
sg11
S'Air One'
p756
sba(iflightmod
Flight
p757
(dp758
g3
S'London'
p759
sg5
I1386755400
sg6
S'BA2582'
p760
sg8
I1386747900
sg9
S'B734'
p761
sg11
S'British Airways Shuttle'
p762
sba(iflightmod
Flight
p763
(dp764
g3
S'Rome'
p765
sg5
I1386756900
sg6
S'AZ1463'
p766
sg8
I1386753000
sg9
S'A320'
p767
sg11
S'Alitalia'
p768
sba(iflightmod
Flight
p769
(dp770
g3
S'Madrid'
p771
sg5
I1386757200
sg6
S'IB3242'
p772
sg8
I1386748200
sg9
S'A320'
p773
sg11
S'Iberia'
p774
sba(iflightmod
Flight
p775
(dp776
g3
S'Amsterdam'
p777
sg5
I1386758700
sg6
S'KL1653'
p778
sg8
I1386752100
sg9
S'B737'
p779
sg11
S'KLM'
p780
sba.